AutoUmp.xe: file format: xcore-xe

Loadable 1 for  (node "", tile 0):

Disassembly of section .text (size: 324)

<_start>:
             0x00040000: 00 68:       ldc (ru6)       r0, 0x0
             0x00040002: 40 68:       ldc (ru6)       r1, 0x0
             0x00040004: 80 68:       ldc (ru6)       r2, 0x0
             0x00040006: c0 68:       ldc (ru6)       r3, 0x0
             0x00040008: 00 69:       ldc (ru6)       r4, 0x0
             0x0004000a: 40 69:       ldc (ru6)       r5, 0x0
             0x0004000c: 80 69:       ldc (ru6)       r6, 0x0
             0x0004000e: c0 69:       ldc (ru6)       r7, 0x0
             0x00040010: 00 6a:       ldc (ru6)       r8, 0x0
             0x00040012: 40 6a:       ldc (ru6)       r9, 0x0
             0x00040014: 00 f0 96 d8: ldap (lu10)     r11, 0x96 <.label0>
             0x00040018: fb 37:       set (1r)        cp, r11
             0x0004001a: 00 f0 9f d8: ldap (lu10)     r11, 0x9f <.label1>
             0x0004001e: eb 37:       set (1r)        dp, r11
             0x00040020: cb 6a:       ldc (ru6)       r11, 0xb
             0x00040022: bb ff ec 17: get (l2r)       r10, ps[r11]
             0x00040026: 80 f0 c0 6a: ldc (lru6)      r11, 0x2000
             0x0004002a: be 16:       add (3r)        r11, r11, r10
             0x0004002c: fb 2f:       set (1r)        sp, r11
             0x0004002e: c2 86:       getr (rus)      r0, 0x2
             0x00040030: 00 68:       ldc (ru6)       r0, 0x0
             0x00040032: 47 68:       ldc (ru6)       r1, 0x7
             0x00040034: 80 68:       ldc (ru6)       r2, 0x0
             0x00040036: 00 f0 4d d0: bl (lu10)       0x4d <write_sswitch_reg>
             0x0004003a: 02 f0 40 69: ldc (lru6)      r5, 0x80
             0x0004003e: 02 f0 88 69: ldc (lru6)      r6, 0x88

<disableLinks>:
             0x00040042: 00 68:       ldc (ru6)       r0, 0x0
             0x00040044: d4 90:       add (2rus)      r1, r5, 0x0
             0x00040046: 80 68:       ldc (ru6)       r2, 0x0
             0x00040048: 00 f0 44 d0: bl (lu10)       0x44 <write_sswitch_reg>
             0x0004004c: 15 91:       add (2rus)      r5, r5, 0x1
             0x0004004e: 06 33:       eq (3r)         r0, r5, r6
             0x00040050: 08 7c:       bf (ru6)        r0, -0x8 <disableLinks>
             0x00040052: 00 68:       ldc (ru6)       r0, 0x0
             0x00040054: 45 68:       ldc (ru6)       r1, 0x5
             0x00040056: 80 68:       ldc (ru6)       r2, 0x0
             0x00040058: 00 f0 41 d0: bl (lu10)       0x41 <write_sswitch_reg_no_ack>

<nodeIdLoop>:
             0x0004005c: 40 68:       ldc (ru6)       r1, 0x0
             0x0004005e: c2 86:       getr (rus)      r0, 0x2
             0x00040060: e0 17:       freer (1r)      res[r0]
             0x00040062: 81 ac:       shr (2rus)      r0, r0, 0x10
             0x00040064: 01 30:       eq (3r)         r0, r0, r1
             0x00040066: 06 7c:       bf (ru6)        r0, -0x6 <nodeIdLoop>
             0x00040068: 00 68:       ldc (ru6)       r0, 0x0
             0x0004006a: 68 68:       ldc (ru6)       r1, 0x28
             0x0004006c: 80 68:       ldc (ru6)       r2, 0x0
             0x0004006e: 00 f0 31 d0: bl (lu10)       0x31 <write_sswitch_reg>
             0x00040072: 00 68:       ldc (ru6)       r0, 0x0
             0x00040074: 02 f0 48 68: ldc (lru6)      r1, 0x88
             0x00040078: 00 f0 80 58: ldw (lru6)      r2, dp[0x0]
             0x0004007c: 00 f0 2a d0: bl (lu10)       0x2a <write_sswitch_reg>

<setDimensionReg>:
             0x00040080: 00 68:       ldc (ru6)       r0, 0x0
             0x00040082: 4c 68:       ldc (ru6)       r1, 0xc
             0x00040084: 00 f0 81 58: ldw (lru6)      r2, dp[0x1]
             0x00040088: 00 f0 24 d0: bl (lu10)       0x24 <write_sswitch_reg>
             0x0004008c: 00 68:       ldc (ru6)       r0, 0x0
             0x0004008e: 4d 68:       ldc (ru6)       r1, 0xd
             0x00040090: 00 f0 82 58: ldw (lru6)      r2, dp[0x2]
             0x00040094: 00 f0 1e d0: bl (lu10)       0x1e <write_sswitch_reg>

<sayHello8>:
             0x00040098: 00 68:       ldc (ru6)       r0, 0x0
             0x0004009a: 02 f0 48 68: ldc (lru6)      r1, 0x88
             0x0004009e: 00 f0 80 58: ldw (lru6)      r2, dp[0x0]
             0x000400a2: dd a6:       mkmsk (rus)     r3, 0x1
             0x000400a4: 58 69:       ldc (ru6)       r5, 0x18
             0x000400a6: 7d 22:       shl (3r)        r3, r3, r5
             0x000400a8: 2b 40:       or (3r)         r2, r2, r3
             0x000400aa: 00 f0 13 d0: bl (lu10)       0x13 <write_sswitch_reg>

<invokeXsscHello8>:
             0x000400ae: 02 68:       ldc (ru6)       r0, 0x2
             0x000400b0: 02 f0 40 68: ldc (lru6)      r1, 0x80
             0x000400b4: 00 f0 83 58: ldw (lru6)      r2, dp[0x3]
             0x000400b8: dd a6:       mkmsk (rus)     r3, 0x1
             0x000400ba: 58 69:       ldc (ru6)       r5, 0x18
             0x000400bc: 7d 22:       shl (3r)        r3, r3, r5
             0x000400be: 2b 40:       or (3r)         r2, r2, r3
             0x000400c0: 00 f0 08 d0: bl (lu10)       0x8 <write_sswitch_reg>

<setXsscSysFreq8>:
             0x000400c4: 02 68:       ldc (ru6)       r0, 0x2
             0x000400c6: 01 f0 51 68: ldc (lru6)      r1, 0x51
             0x000400ca: 98 68:       ldc (ru6)       r2, 0x18
             0x000400cc: 00 f0 02 d0: bl (lu10)       0x2 <write_sswitch_reg>
             0x000400d0: 00 f0 32 d0: bl (lu10)       0x32 <_done>

<write_sswitch_reg>:
             0x000400d4: 0c f3 cc 68: ldc (lru6)      r3, 0xc30c
             0x000400d8: c1 6a:       ldc (ru6)       r11, 0x1
             0x000400da: 00 f0 05 73: bu (lu6)        0x5 <write_switch_reg>

<write_sswitch_reg_no_ack>:
             0x000400de: 0c f3 cc 68: ldc (lru6)      r3, 0xc30c
             0x000400e2: c0 6a:       ldc (ru6)       r11, 0x0
             0x000400e4: 00 f0 00 73: bu (lu6)        0x0 <write_switch_reg>

<write_switch_reg>:
             0x000400e8: 00 55:       stw (ru6)       r4, sp[0x0]
             0x000400ea: c1 ac:       shr (2rus)      r4, r0, 0x10
             0x000400ec: 1e 71:       bt (ru6)        r4, 0x1e <write_switch_reg_return_0>
             0x000400ee: c5 ac:       shr (2rus)      r4, r1, 0x10
             0x000400f0: 1c 71:       bt (ru6)        r4, 0x1c <write_switch_reg_return_0>
             0x000400f2: 81 a4:       shl (2rus)      r0, r0, 0x10
             0x000400f4: 03 40:       or (3r)         r0, r0, r3
             0x000400f6: 02 87:       getr (rus)      r4, 0x2
             0x000400f8: 90 17:       setd (r2r)      res[r4], r0
             0x000400fa: 03 f0 c0 68: ldc (lru6)      r3, 0xc0
             0x000400fe: 03 4f:       outct (2r)      res[r4], r3
             0x00040100: c3 7a:       bf (ru6)        r11, 0x3 <build_return_no_ack>
             0x00040102: 40 ad:       shr (2rus)      r0, r4, 0x8
             0x00040104: 80 a4:       shl (2rus)      r0, r0, 0x8
             0x00040106: 04 73:       bu (u6)         0x4 <write_switch_reg_send>

<build_return_no_ack>:
             0x00040108: 80 ac:       shr (2rus)      r0, r0, 0x8
             0x0004010a: 3c a7:       mkmsk (rus)     r3, 0x8
             0x0004010c: 03 40:       or (3r)         r0, r0, r3
             0x0004010e: 80 a4:       shl (2rus)      r0, r0, 0x8

<write_switch_reg_send>:
             0x00040110: b4 ac:       shr (2rus)      r3, r1, 0x8
             0x00040112: 03 40:       or (3r)         r0, r0, r3
             0x00040114: 80 af:       out (r2r)       res[r4], r0
             0x00040116: 94 0f:       outt (r2r)      res[r4], r1
             0x00040118: 88 af:       out (r2r)       res[r4], r2
             0x0004011a: 11 4f:       outct (rus)     res[r4], 0x1
             0x0004011c: c9 7a:       bf (ru6)        r11, 0x9 <write_switch_reg_free_and_return_1>
             0x0004011e: 90 87:       inct (2r)       r0, res[r4]
             0x00040120: 03 b0:       eq (2rus)       r0, r0, 0x3
             0x00040122: 11 cf:       chkct (rus)     res[r4], 0x1
             0x00040124: e4 17:       freer (1r)      res[r4]
             0x00040126: 00 5d:       ldw (ru6)       r4, sp[0x0]
             0x00040128: c0 77:       retsp (u6)      0x0

<write_switch_reg_return_0>:
             0x0004012a: 00 68:       ldc (ru6)       r0, 0x0
             0x0004012c: 00 5d:       ldw (ru6)       r4, sp[0x0]
             0x0004012e: c0 77:       retsp (u6)      0x0

<write_switch_reg_free_and_return_1>:
             0x00040130: e4 17:       freer (1r)      res[r4]
             0x00040132: 01 68:       ldc (ru6)       r0, 0x1
             0x00040134: 00 5d:       ldw (ru6)       r4, sp[0x0]
             0x00040136: c0 77:       retsp (u6)      0x0

<_done>:
             0x00040138: 07 68:       ldc (ru6)       r0, 0x7
             0x0004013a: 00 f0 01 d0: bl (lu10)       0x1 <_DoSyscall>
.label2      0x0004013e: 01 77:       bu (u6)         -0x1 <.label2>

<_DoSyscall>:
             0x00040140: d0 a6:       mkmsk (rus)     r0, 0x20
             0x00040142: c0 77:       retsp (u6)      0x0

Disassembly of section .cp.rodata (size: 24)

<_cp>:
<xs1g_link_ports>:
.label0      0x00040144: 00 00 01 00: 
             0x00040148: 00 00 20 00: 
             0x0004014c: 00 01 01 00: 
             0x00040150: 00 04 01 00: 
             0x00040154: 00 00 10 00: 
             0x00040158: 00 05 01 00: 

Disassembly of section .dp.data (size: 16)

<_dp>:
<xlink8RegVal>:
.label1      0x0004015c: 33 98 01 c0: 

<dirBits0>:
             0x00040160: 01 11 11 11: 

<dirBits1>:
             0x00040164: 11 11 11 11: 

<treeLinkProgValThere8>:
             0x00040168: 00 00 00 c0: 

Loadable 1 for  (node "", tile 1):

Disassembly of section .text (size: 64)

<_start>:
             0x00040000: 00 68:       ldc (ru6)       r0, 0x0
             0x00040002: 40 68:       ldc (ru6)       r1, 0x0
             0x00040004: 80 68:       ldc (ru6)       r2, 0x0
             0x00040006: c0 68:       ldc (ru6)       r3, 0x0
             0x00040008: 00 69:       ldc (ru6)       r4, 0x0
             0x0004000a: 40 69:       ldc (ru6)       r5, 0x0
             0x0004000c: 80 69:       ldc (ru6)       r6, 0x0
             0x0004000e: c0 69:       ldc (ru6)       r7, 0x0
             0x00040010: 00 6a:       ldc (ru6)       r8, 0x0
             0x00040012: 40 6a:       ldc (ru6)       r9, 0x0
             0x00040014: 00 f0 14 d8: ldap (lu10)     r11, 0x14 <.label0>
             0x00040018: fb 37:       set (1r)        cp, r11
             0x0004001a: 00 f0 1d d8: ldap (lu10)     r11, 0x1d <.label1>
             0x0004001e: eb 37:       set (1r)        dp, r11
             0x00040020: cb 6a:       ldc (ru6)       r11, 0xb
             0x00040022: bb ff ec 17: get (l2r)       r10, ps[r11]
             0x00040026: 80 f0 c0 6a: ldc (lru6)      r11, 0x2000
             0x0004002a: be 16:       add (3r)        r11, r11, r10
             0x0004002c: fb 2f:       set (1r)        sp, r11
             0x0004002e: c2 86:       getr (rus)      r0, 0x2
             0x00040030: 00 f0 00 d0: bl (lu10)       0x0 <_done>

<_done>:
             0x00040034: 07 68:       ldc (ru6)       r0, 0x7
             0x00040036: 00 f0 01 d0: bl (lu10)       0x1 <_DoSyscall>
.label2      0x0004003a: 01 77:       bu (u6)         -0x1 <.label2>

<_DoSyscall>:
             0x0004003c: d0 a6:       mkmsk (rus)     r0, 0x20
             0x0004003e: c0 77:       retsp (u6)      0x0

Disassembly of section .cp.rodata (size: 24)

<_cp>:
<xs1g_link_ports>:
.label0      0x00040040: 00 00 01 00: 
             0x00040044: 00 00 20 00: 
             0x00040048: 00 01 01 00: 
             0x0004004c: 00 04 01 00: 
             0x00040050: 00 00 10 00: 
             0x00040054: 00 05 01 00: 

Loadable 2 for  (node "", tile 0):

Disassembly of section .text (size: 3208)

<_start>:
             0x00040000: 00 f0 40 77: entsp (lu6)     0x0
             0x00040004: 4b 68:       ldc (ru6)       r1, 0xb
             0x00040006: d1 fe ec 17: get (l2r)       r0, ps[r1]
             0x0004000a: 04 f0 8b 68: ldc (lru6)      r2, 0x10b
             0x0004000e: c2 fe ec 1f: set (lr2r)      ps[r2], r0
             0x00040012: c3 86:       getr (rus)      r0, 0x3
             0x00040014: 79 d8:       ldap (u10)      r11, 0x79 <_InitChildThread>
             0x00040016: 02 73:       bu (u6)         0x2 <.label0>
.label1      0x00040018: 5d ff ec 07: init (l2r)      t[r1]:pc, r11
.label0      0x0004001c: d4 06:       getst (2r)      r1, res[r0]
             0x0004001e: 44 74:       bt (ru6)        r1, -0x4 <.label1>
             0x00040020: f0 1f:       msync (1r)      res[r0]
             0x00040022: 74 d0:       bl (u10)        0x74 <_SetupThread>
             0x00040024: 00 f0 8a 6f: ldw (lru6)      sp, cp[0xa]
             0x00040028: f0 17:       mjoin (1r)      res[r0]
             0x0004002a: e0 17:       freer (1r)      res[r0]
             0x0004002c: 00 f0 16 60: ldaw (lru6)     r0, dp[0x16]
             0x00040030: 40 68:       ldc (ru6)       r1, 0x0
             0x00040032: 00 f0 8b 6c: ldw (lru6)      r2, cp[0xb]
             0x00040036: 00 f0 cb d2: bl (lu10)       0x2cb <memset>
             0x0004003a: 00 f0 07 6c: ldw (lru6)      r0, cp[0x7]
             0x0004003e: 40 68:       ldc (ru6)       r1, 0x0
             0x00040040: 00 f0 8c 6c: ldw (lru6)      r2, cp[0xc]
             0x00040044: 00 f0 c4 d2: bl (lu10)       0x2c4 <memset>
             0x00040048: 00 f0 c6 d2: bl (lu10)       0x2c6 <__init_threadlocal_timer>
             0x0004004c: 01 f0 1c d2: bl (lu10)       0x61c <.label2>
             0x00040050: 00 f0 c6 6a: ldc (lru6)      r11, 0x6
             0x00040054: c8 ea:       setc (ru6)      res[r11], 0x8
             0x00040056: cf ea:       setc (ru6)      res[r11], 0xf
             0x00040058: 00 68:       ldc (ru6)       r0, 0x0
             0x0004005a: 01 54:       stw (ru6)       r0, sp[0x1]
             0x0004005c: 00 f0 40 68: ldc (lru6)      r1, 0x0
             0x00040060: 48 78:       bf (ru6)        r1, 0x8 <.label3>
             0x00040062: 01 64:       ldaw (ru6)      r0, sp[0x1]
             0x00040064: 00 f0 8e d2: bl (lu10)       0x28e <_get_cmdline>
             0x00040068: b0 f8 ec 97: ashr (l2rus)    r11, r0, 0x20
             0x0004006c: c2 7a:       bf (ru6)        r11, 0x2 <.label3>
             0x0004006e: 01 90:       add (2rus)      r0, r0, 0x1
             0x00040070: f0 4f:       ecallt (1r)     r0
.label3      0x00040072: 41 64:       ldaw (ru6)      r1, sp[0x1]
             0x00040074: 00 f0 3f d2: bl (lu10)       0x23f <main>
             0x00040078: 02 70:       bt (ru6)        r0, 0x2 <.label4>
             0x0004007a: 00 f0 8b d2: bl (lu10)       0x28b <__libc_done>
.label4      0x0004007e: 00 f0 95 d2: bl (lu10)       0x295 <_exit_unlocked>
             0x00040082: ff 17:       nop (0r)        
             0x00040084: ff 17:       nop (0r)        
             0x00040086: ff 17:       nop (0r)        
             0x00040088: ff 17:       nop (0r)        
             0x0004008a: ff 17:       nop (0r)        
             0x0004008c: ff 17:       nop (0r)        
             0x0004008e: ff 17:       nop (0r)        
             0x00040090: ff 17:       nop (0r)        
             0x00040092: ff 17:       nop (0r)        
             0x00040094: ff 17:       nop (0r)        
             0x00040096: ff 17:       nop (0r)        
             0x00040098: ff 17:       nop (0r)        
             0x0004009a: ff 17:       nop (0r)        
             0x0004009c: ff 17:       nop (0r)        
             0x0004009e: ff 17:       nop (0r)        
             0x000400a0: ff 17:       nop (0r)        
             0x000400a2: ff 17:       nop (0r)        
             0x000400a4: ff 17:       nop (0r)        
             0x000400a6: ff 17:       nop (0r)        
             0x000400a8: ff 17:       nop (0r)        
             0x000400aa: ff 17:       nop (0r)        
             0x000400ac: ff 17:       nop (0r)        
             0x000400ae: ff 17:       nop (0r)        
             0x000400b0: ff 17:       nop (0r)        
             0x000400b2: ff 17:       nop (0r)        
             0x000400b4: ff 17:       nop (0r)        
             0x000400b6: ff 17:       nop (0r)        
             0x000400b8: ff 17:       nop (0r)        
             0x000400ba: ff 17:       nop (0r)        
             0x000400bc: ff 17:       nop (0r)        
             0x000400be: ff 17:       nop (0r)        
             0x000400c0: ff 17:       nop (0r)        
             0x000400c2: ff 17:       nop (0r)        
             0x000400c4: ff 17:       nop (0r)        
             0x000400c6: ff 17:       nop (0r)        
             0x000400c8: ff 17:       nop (0r)        
             0x000400ca: ff 17:       nop (0r)        
             0x000400cc: ff 17:       nop (0r)        
             0x000400ce: ff 17:       nop (0r)        
             0x000400d0: ff 17:       nop (0r)        
             0x000400d2: ff 17:       nop (0r)        
             0x000400d4: ff 17:       nop (0r)        
             0x000400d6: ff 17:       nop (0r)        
             0x000400d8: ff 17:       nop (0r)        
             0x000400da: ff 17:       nop (0r)        
             0x000400dc: ff 17:       nop (0r)        
             0x000400de: ff 17:       nop (0r)        
             0x000400e0: ff 17:       nop (0r)        
             0x000400e2: ff 17:       nop (0r)        
             0x000400e4: ff 17:       nop (0r)        
             0x000400e6: ff 17:       nop (0r)        
             0x000400e8: ff 17:       nop (0r)        
             0x000400ea: ff 17:       nop (0r)        
             0x000400ec: ff 17:       nop (0r)        
             0x000400ee: ff 17:       nop (0r)        
             0x000400f0: ff 17:       nop (0r)        
             0x000400f2: ff 17:       nop (0r)        
             0x000400f4: ff 17:       nop (0r)        
             0x000400f6: ff 17:       nop (0r)        
             0x000400f8: ff 17:       nop (0r)        
             0x000400fa: ff 17:       nop (0r)        
             0x000400fc: ff 17:       nop (0r)        
             0x000400fe: ff 17:       nop (0r)        

<_TrapHandler>:
             0x00040100: 00 f0 40 77: entsp (lu6)     0x0
             0x00040104: 00 f0 60 d2: bl (lu10)       0x260 <_DoException>

<_InitChildThread>:
             0x00040108: 01 d0:       bl (u10)        0x1 <_SetupThread>
             0x0004010a: ee 07:       ssync (0r)      

<_SetupThread>:
             0x0004010c: 07 dc:       ldap (u10)      r11, -0x7 <_TrapHandler>
             0x0004010e: ff 07:       set (0r)        kep, r11
             0x00040110: 01 f0 e8 d9: ldap (lu10)     r11, 0x5e8 <.label5>
             0x00040114: fb 37:       set (1r)        cp, r11
             0x00040116: 00 f0 46 6f: ldw (lru6)      dp, cp[0x6]
             0x0004011a: c0 6a:       ldc (ru6)       r11, 0x0
             0x0004011c: fb 2f:       set (1r)        sp, r11
             0x0004011e: c0 77:       retsp (u6)      0x0

<__register_frame_info_bases>:
             0x00040120: c0 77:       retsp (u6)      0x0
             0x00040122: 00 00:       stw (2rus)      r0, r0[0x0]

<__main__main_tile_0>:
             0x00040124: ff 17:       nop (0r)        
             0x00040126: 82 7f:       dualentsp (u6)  0x2
             0x00040128: 00 f0 45 d0: bl (lu10)       0x45 <BluetoothThread>
             0x0004012c: ff 17:       nop (0r)        
             0x0004012e: c2 77:       retsp (u6)      0x2

<BluetoothSendByte>:
             0x00040130: ff 17:       nop (0r)        
             0x00040132: 80 7f:       dualentsp (u6)  0x0
             0x00040134: 86 77:       extsp (u6)      0x6
             0x00040136: ff 17:       nop (0r)        
             0x00040138: 04 f9 ec f7: std (l2rus)     r5, r4, sp[0x0]
             0x0004013c: 2d f9 ec f7: std (l2rus)     r7, r6, sp[0x1]
             0x00040140: 06 fa ec f7: std (l2rus)     r9, r8, sp[0x2]
             0x00040144: 00 f0 5a 58: ldw (lru6)      r1, dp[0x1a]
             0x00040148: c5 b6:       in (2r)         r1, res[r1]
             0x0004014a: ff 17:       nop (0r)        
             0x0004014c: 00 f0 59 60: ldaw (lru6)     r1, dp[0x19]
             0x00040150: 00 69:       ldc (ru6)       r4, 0x0
             0x00040152: ff 17:       nop (0r)        
             0x00040154: ff 17:       nop (0r)        
             0x00040156: 64 8a:       ld8u (3r)       r2, r1[r4]
             0x00040158: 03 f0 7e 69: ldc (lru6)      r5, 0xfe
             0x0004015c: 79 3a:       and (3r)        r3, r2, r5
             0x0004015e: ff 17:       nop (0r)        
             0x00040160: 74 fa ec 8f: st8 (l3r)       r3, r1[r4]
             0x00040164: 00 f0 8f 58: ldw (lru6)      r2, dp[0xf]
             0x00040168: ce ae:       out (r2r)       res[r2], r3
             0x0004016a: ff 17:       nop (0r)        
             0x0004016c: 00 f0 da 58: ldw (lru6)      r3, dp[0x1a]
             0x00040170: cf ae:       out (r2r)       res[r3], r3
             0x00040172: ff 17:       nop (0r)        
             0x00040174: eb 8f:       gettime (1r)    r11
             0x00040176: ff 17:       nop (0r)        
             0x00040178: 01 f0 ec 68: ldc (lru6)      r3, 0x6c
             0x0004017c: ef 11:       add (3r)        r6, r11, r3
             0x0004017e: ff 17:       nop (0r)        
             0x00040180: 00 f0 9b 51: stw (lru6)      r6, dp[0x1b]
             0x00040184: ee 17:       get (0r)        r11, id
             0x00040186: ff 17:       nop (0r)        
             0x00040188: 00 f0 c0 61: ldaw (lru6)     r7, dp[0x0]
             0x0004018c: ff 17:       nop (0r)        
             0x0004018e: ff 4d:       ldw (3r)        r11, r7[r11]
             0x00040190: 7b 17:       setd (r2r)      res[r11], r6
             0x00040192: ff 17:       nop (0r)        
             0x00040194: c9 ea:       setc (ru6)      res[r11], 0x9
             0x00040196: ff 17:       nop (0r)        
             0x00040198: 6b b7:       in (2r)         r6, res[r11]
             0x0004019a: ff 17:       nop (0r)        
             0x0004019c: 19 a7:       mkmsk (rus)     r6, 0x1
             0x0004019e: 30 91:       add (2rus)      r7, r4, 0x0
.label8      0x000401a0: 00 f0 1a 5a: ldw (lru6)      r8, dp[0x1a]
             0x000401a4: a0 b7:       in (2r)         r8, res[r8]
             0x000401a6: ff 17:       nop (0r)        
             0x000401a8: 8b 23:       shl (3r)        r8, r6, r7
             0x000401aa: ff 17:       nop (0r)        
             0x000401ac: 10 3a:       and (3r)        r9, r8, r0
             0x000401ae: c4 8a:       ld8u (3r)       r8, r1[r4]
             0x000401b0: 00 f0 42 72: bt (lru6)       r9, 0x2 <.label6>
             0x000401b4: 41 3c:       and (3r)        r8, r8, r5
             0x000401b6: ff 17:       nop (0r)        
             0x000401b8: 00 f0 01 73: bu (lu6)        0x1 <.label7>
.label6      0x000401bc: 42 44:       or (3r)         r8, r8, r6
             0x000401be: ff 17:       nop (0r)        
.label7      0x000401c0: c4 fa ec 8f: st8 (l3r)       r8, r1[r4]
             0x000401c4: 42 af:       out (r2r)       res[r2], r8
             0x000401c6: ff 17:       nop (0r)        
             0x000401c8: 00 f0 1a 5a: ldw (lru6)      r8, dp[0x1a]
             0x000401cc: a0 af:       out (r2r)       res[r8], r8
             0x000401ce: ff 17:       nop (0r)        
             0x000401d0: 00 f0 1b 5a: ldw (lru6)      r8, dp[0x1b]
             0x000401d4: 03 12:       add (3r)        r8, r8, r3
             0x000401d6: ff 17:       nop (0r)        
             0x000401d8: 00 f0 1b 52: stw (lru6)      r8, dp[0x1b]
             0x000401dc: b3 17:       setd (r2r)      res[r11], r8
             0x000401de: ff 17:       nop (0r)        
             0x000401e0: c9 ea:       setc (ru6)      res[r11], 0x9
             0x000401e2: ff 17:       nop (0r)        
             0x000401e4: a3 b7:       in (2r)         r8, res[r11]
             0x000401e6: 3d 91:       add (2rus)      r7, r7, 0x1
             0x000401e8: cc b5:       eq (2rus)       r8, r7, 0x8
             0x000401ea: ff 17:       nop (0r)        
             0x000401ec: 00 f0 14 7e: bf (lru6)       r8, -0x14 <.label8>
             0x000401f0: 00 f0 1a 58: ldw (lru6)      r0, dp[0x1a]
             0x000401f4: c0 b6:       in (2r)         r0, res[r0]
             0x000401f6: ff 17:       nop (0r)        
             0x000401f8: 00 68:       ldc (ru6)       r0, 0x0
             0x000401fa: ff 17:       nop (0r)        
             0x000401fc: ff 17:       nop (0r)        
             0x000401fe: 44 88:       ld8u (3r)       r4, r1[r0]
             0x00040200: 42 43:       or (3r)         r4, r4, r6
             0x00040202: ff 17:       nop (0r)        
             0x00040204: 44 f8 ec 8f: st8 (l3r)       r4, r1[r0]
             0x00040208: 02 af:       out (r2r)       res[r2], r4
             0x0004020a: ff 17:       nop (0r)        
             0x0004020c: 00 f0 1a 58: ldw (lru6)      r0, dp[0x1a]
             0x00040210: c0 ae:       out (r2r)       res[r0], r0
             0x00040212: ff 17:       nop (0r)        
             0x00040214: 00 f0 1b 58: ldw (lru6)      r0, dp[0x1b]
             0x00040218: 03 10:       add (3r)        r0, r0, r3
             0x0004021a: ff 17:       nop (0r)        
             0x0004021c: 00 f0 1b 50: stw (lru6)      r0, dp[0x1b]
             0x00040220: 33 17:       setd (r2r)      res[r11], r0
             0x00040222: ff 17:       nop (0r)        
             0x00040224: c9 ea:       setc (ru6)      res[r11], 0x9
             0x00040226: ff 17:       nop (0r)        
             0x00040228: 23 b7:       in (2r)         r0, res[r11]
             0x0004022a: ff 17:       nop (0r)        
             0x0004022c: 06 fa ec ef: ldd (l2rus)     r9, r8, sp[0x2]
             0x00040230: 2d f9 ec ef: ldd (l2rus)     r7, r6, sp[0x1]
             0x00040234: 04 f9 ec ef: ldd (l2rus)     r5, r4, sp[0x0]
             0x00040238: 86 67:       ldaw (ru6)      sp, sp[0x6]
             0x0004023a: ff 17:       nop (0r)        
             0x0004023c: ff 17:       nop (0r)        
             0x0004023e: c0 77:       retsp (u6)      0x0

<BluetoothThread>:
             0x00040240: ff 17:       nop (0r)        
             0x00040242: 84 7f:       dualentsp (u6)  0x4
             0x00040244: 40 90:       add (2rus)      r4, r0, 0x0
             0x00040246: 02 55:       stw (ru6)       r4, sp[0x2]
             0x00040248: 81 87:       getr (rus)      r0, 0x5
             0x0004024a: ff 17:       nop (0r)        
             0x0004024c: 00 f0 1a 50: stw (lru6)      r0, dp[0x1a]
.label9      0x00040250: 11 cf:       chkct (rus)     res[r4], 0x1
             0x00040252: ff 17:       nop (0r)        
             0x00040254: 11 4f:       outct (rus)     res[r4], 0x1
             0x00040256: ff 17:       nop (0r)        
             0x00040258: 90 8f:       int (2r)        r0, res[r4]
             0x0004025a: ff 17:       nop (0r)        
             0x0004025c: 11 cf:       chkct (rus)     res[r4], 0x1
             0x0004025e: ff 17:       nop (0r)        
             0x00040260: 11 4f:       outct (rus)     res[r4], 0x1
             0x00040262: ff 17:       nop (0r)        
             0x00040264: 00 f0 4e d4: bl (lu10)       -0x4e <BluetoothSendByte>
             0x00040268: 00 f0 07 77: bu (lu6)        -0x7 <.label9>

<computeOV7670Data>:
             0x0004026c: 00 f0 8c 7f: dualentsp (lu6) 0xc
             0x00040270: 00 f0 82 54: stw (lru6)      r2, sp[0x2]
             0x00040274: 00 f0 c3 54: stw (lru6)      r3, sp[0x3]
             0x00040278: 00 f0 04 55: stw (lru6)      r4, sp[0x4]
             0x0004027c: 00 f0 45 55: stw (lru6)      r5, sp[0x5]
             0x00040280: 00 f0 86 55: stw (lru6)      r6, sp[0x6]
             0x00040284: 00 f0 c7 55: stw (lru6)      r7, sp[0x7]
             0x00040288: 00 f0 08 56: stw (lru6)      r8, sp[0x8]
             0x0004028c: 00 f0 49 56: stw (lru6)      r9, sp[0x9]
             0x00040290: 00 f0 8a 56: stw (lru6)      r10, sp[0xa]
             0x00040294: 00 f0 cb 56: stw (lru6)      r11, sp[0xb]
             0x00040298: 00 f0 40 69: ldc (lru6)      r5, 0x0
             0x0004029c: 04 f0 3f 69: ldc (lru6)      r4, 0x13f
             0x000402a0: 00 f0 c0 6a: ldc (lru6)      r11, 0x0

<computeloop>:
             0x000402a4: 15 91:       add (2rus)      r5, r5, 0x1
             0x000402a6: a1 8a:       ld8u (3r)       r6, r0[r5]
             0x000402a8: 15 99:       sub (2rus)      r5, r5, 0x1
             0x000402aa: b1 8a:       ld8u (3r)       r7, r0[r5]
             0x000402ac: 15 91:       add (2rus)      r5, r5, 0x1
             0x000402ae: c5 8a:       ld8u (3r)       r8, r1[r5]
             0x000402b0: 15 91:       add (2rus)      r5, r5, 0x1
             0x000402b2: d5 8a:       ld8u (3r)       r9, r1[r5]
             0x000402b4: 42 1c:       sub (3r)        r8, r8, r6
             0x000402b6: 57 1c:       sub (3r)        r9, r9, r7
             0x000402b8: 68 97:       neg (2r)        r6, r8
             0x000402ba: 6d 97:       neg (2r)        r7, r9
             0x000402bc: 0c c5:       lss (3r)        r8, r3, r8
             0x000402be: 1d c5:       lss (3r)        r9, r3, r9
             0x000402c0: ae c2:       lss (3r)        r6, r3, r6
             0x000402c2: bf c2:       lss (3r)        r7, r3, r7
             0x000402c4: 22 44:       or (3r)         r6, r8, r6
             0x000402c6: 37 44:       or (3r)         r7, r9, r7
             0x000402c8: 68 91:       add (2rus)      r10, r6, 0x0
             0x000402ca: 3d a1:       shl (2rus)      r7, r7, 0x1
             0x000402cc: 6b 44:       or (3r)         r10, r10, r7
             0x000402ce: ff 17:       nop (0r)        
             0x000402d0: 15 91:       add (2rus)      r5, r5, 0x1
             0x000402d2: a1 8a:       ld8u (3r)       r6, r0[r5]
             0x000402d4: 15 99:       sub (2rus)      r5, r5, 0x1
             0x000402d6: b1 8a:       ld8u (3r)       r7, r0[r5]
             0x000402d8: 15 91:       add (2rus)      r5, r5, 0x1
             0x000402da: c5 8a:       ld8u (3r)       r8, r1[r5]
             0x000402dc: 15 91:       add (2rus)      r5, r5, 0x1
             0x000402de: d5 8a:       ld8u (3r)       r9, r1[r5]
             0x000402e0: 42 1c:       sub (3r)        r8, r8, r6
             0x000402e2: 57 1c:       sub (3r)        r9, r9, r7
             0x000402e4: 68 97:       neg (2r)        r6, r8
             0x000402e6: 6d 97:       neg (2r)        r7, r9
             0x000402e8: 0c c5:       lss (3r)        r8, r3, r8
             0x000402ea: 1d c5:       lss (3r)        r9, r3, r9
             0x000402ec: ae c2:       lss (3r)        r6, r3, r6
             0x000402ee: bf c2:       lss (3r)        r7, r3, r7
             0x000402f0: 22 44:       or (3r)         r6, r8, r6
             0x000402f2: 37 44:       or (3r)         r7, r9, r7
             0x000402f4: 2a a1:       shl (2rus)      r6, r6, 0x2
             0x000402f6: 3f a1:       shl (2rus)      r7, r7, 0x3
             0x000402f8: 6a 44:       or (3r)         r10, r10, r6
             0x000402fa: ff 17:       nop (0r)        
             0x000402fc: 6b 44:       or (3r)         r10, r10, r7
             0x000402fe: ff 17:       nop (0r)        
             0x00040300: 15 91:       add (2rus)      r5, r5, 0x1
             0x00040302: a1 8a:       ld8u (3r)       r6, r0[r5]
             0x00040304: 15 99:       sub (2rus)      r5, r5, 0x1
             0x00040306: b1 8a:       ld8u (3r)       r7, r0[r5]
             0x00040308: 15 91:       add (2rus)      r5, r5, 0x1
             0x0004030a: c5 8a:       ld8u (3r)       r8, r1[r5]
             0x0004030c: 15 91:       add (2rus)      r5, r5, 0x1
             0x0004030e: d5 8a:       ld8u (3r)       r9, r1[r5]
             0x00040310: 42 1c:       sub (3r)        r8, r8, r6
             0x00040312: 57 1c:       sub (3r)        r9, r9, r7
             0x00040314: 68 97:       neg (2r)        r6, r8
             0x00040316: 6d 97:       neg (2r)        r7, r9
             0x00040318: 0c c5:       lss (3r)        r8, r3, r8
             0x0004031a: 1d c5:       lss (3r)        r9, r3, r9
             0x0004031c: ae c2:       lss (3r)        r6, r3, r6
             0x0004031e: bf c2:       lss (3r)        r7, r3, r7
             0x00040320: 22 44:       or (3r)         r6, r8, r6
             0x00040322: 37 44:       or (3r)         r7, r9, r7
             0x00040324: 68 a3:       shl (2rus)      r6, r6, 0x4
             0x00040326: 7d a3:       shl (2rus)      r7, r7, 0x5
             0x00040328: 6a 44:       or (3r)         r10, r10, r6
             0x0004032a: ff 17:       nop (0r)        
             0x0004032c: 6b 44:       or (3r)         r10, r10, r7
             0x0004032e: ff 17:       nop (0r)        
             0x00040330: 15 91:       add (2rus)      r5, r5, 0x1
             0x00040332: a1 8a:       ld8u (3r)       r6, r0[r5]
             0x00040334: 15 99:       sub (2rus)      r5, r5, 0x1
             0x00040336: b1 8a:       ld8u (3r)       r7, r0[r5]
             0x00040338: 15 91:       add (2rus)      r5, r5, 0x1
             0x0004033a: c5 8a:       ld8u (3r)       r8, r1[r5]
             0x0004033c: 15 91:       add (2rus)      r5, r5, 0x1
             0x0004033e: d5 8a:       ld8u (3r)       r9, r1[r5]
             0x00040340: 42 1c:       sub (3r)        r8, r8, r6
             0x00040342: 57 1c:       sub (3r)        r9, r9, r7
             0x00040344: 68 97:       neg (2r)        r6, r8
             0x00040346: 6d 97:       neg (2r)        r7, r9
             0x00040348: 0c c5:       lss (3r)        r8, r3, r8
             0x0004034a: 1d c5:       lss (3r)        r9, r3, r9
             0x0004034c: ae c2:       lss (3r)        r6, r3, r6
             0x0004034e: bf c2:       lss (3r)        r7, r3, r7
             0x00040350: 22 44:       or (3r)         r6, r8, r6
             0x00040352: 37 44:       or (3r)         r7, r9, r7
             0x00040354: 6a a3:       shl (2rus)      r6, r6, 0x6
             0x00040356: 7f a3:       shl (2rus)      r7, r7, 0x7
             0x00040358: 6a 44:       or (3r)         r10, r10, r6
             0x0004035a: ff 17:       nop (0r)        
             0x0004035c: 6b 44:       or (3r)         r10, r10, r7
             0x0004035e: ff 17:       nop (0r)        
             0x00040360: 2b fd ec 8f: st8 (l3r)       r10, r2[r11]
             0x00040364: 3d 92:       add (2rus)      r11, r11, 0x1
             0x00040366: ff 17:       nop (0r)        
             0x00040368: 64 c3:       lss (3r)        r6, r5, r4
             0x0004036a: ff 17:       nop (0r)        
             0x0004036c: 00 f0 b3 75: bt (lru6)       r6, -0x33 <computeloop>
             0x00040370: 00 f0 40 69: ldc (lru6)      r5, 0x0
             0x00040374: 00 f0 27 69: ldc (lru6)      r4, 0x27

<copyNewDataToOldBuffer>:
             0x00040378: b1 fa e6 27: ldd (l4r)       r6, r7, r0[r5]
             0x0004037c: b5 fa e6 17: std (l4r)       r6, r7, r1[r5]
             0x00040380: 15 91:       add (2rus)      r5, r5, 0x1
             0x00040382: ff 17:       nop (0r)        
             0x00040384: b1 fa e6 27: ldd (l4r)       r6, r7, r0[r5]
             0x00040388: b5 fa e6 17: std (l4r)       r6, r7, r1[r5]
             0x0004038c: 15 91:       add (2rus)      r5, r5, 0x1
             0x0004038e: ff 17:       nop (0r)        
             0x00040390: b1 fa e6 27: ldd (l4r)       r6, r7, r0[r5]
             0x00040394: b5 fa e6 17: std (l4r)       r6, r7, r1[r5]
             0x00040398: 15 91:       add (2rus)      r5, r5, 0x1
             0x0004039a: ff 17:       nop (0r)        
             0x0004039c: b1 fa e6 27: ldd (l4r)       r6, r7, r0[r5]
             0x000403a0: b5 fa e6 17: std (l4r)       r6, r7, r1[r5]
             0x000403a4: 15 91:       add (2rus)      r5, r5, 0x1
             0x000403a6: 64 c3:       lss (3r)        r6, r5, r4
             0x000403a8: 00 f0 8d 75: bt (lru6)       r6, -0xd <copyNewDataToOldBuffer>
             0x000403ac: 00 f0 82 5c: ldw (lru6)      r2, sp[0x2]
             0x000403b0: 00 f0 c3 5c: ldw (lru6)      r3, sp[0x3]
             0x000403b4: 00 f0 04 5d: ldw (lru6)      r4, sp[0x4]
             0x000403b8: 00 f0 45 5d: ldw (lru6)      r5, sp[0x5]
             0x000403bc: 00 f0 86 5d: ldw (lru6)      r6, sp[0x6]
             0x000403c0: 00 f0 c7 5d: ldw (lru6)      r7, sp[0x7]
             0x000403c4: 00 f0 08 5e: ldw (lru6)      r8, sp[0x8]
             0x000403c8: 00 f0 49 5e: ldw (lru6)      r9, sp[0x9]
             0x000403cc: 00 f0 8a 5e: ldw (lru6)      r10, sp[0xa]
             0x000403d0: 00 f0 cb 5e: ldw (lru6)      r11, sp[0xb]
             0x000403d4: 00 f0 cc 77: retsp (lu6)     0xc

<IOPortOut1.ctor>:
             0x000403d8: 00 f0 40 77: entsp (lu6)     0x0
             0x000403dc: 00 73:       bu (u6)         0x0 <.label10>
.label10     0x000403de: 00 73:       bu (u6)         0x0 <.label11>
.label11     0x000403e0: 00 f0 0f 58: ldw (lru6)      r0, dp[0xf]
             0x000403e4: 08 e8:       setc (ru6)      res[r0], 0x8
             0x000403e6: 00 f0 46 68: ldc (lru6)      r1, 0x6
             0x000403ea: d4 fe ec 0f: setclk (lr2r)   res[r0], r1
             0x000403ee: 00 73:       bu (u6)         0x0 <.label12>
.label12     0x000403f0: c0 77:       retsp (u6)      0x0
             0x000403f2: 00 00:       stw (2rus)      r0, r0[0x0]

<IOPortOut1.dtor>:
             0x000403f4: 00 f0 40 77: entsp (lu6)     0x0
             0x000403f8: 00 73:       bu (u6)         0x0 <.label13>
.label13     0x000403fa: 00 73:       bu (u6)         0x0 <.label14>
.label14     0x000403fc: 00 f0 0f 58: ldw (lru6)      r0, dp[0xf]
             0x00040400: 00 e8:       setc (ru6)      res[r0], 0x0
             0x00040402: 00 73:       bu (u6)         0x0 <.label15>
.label15     0x00040404: c0 77:       retsp (u6)      0x0
             0x00040406: 00 00:       stw (2rus)      r0, r0[0x0]

<IOPortIn1.ctor>:
             0x00040408: 00 f0 40 77: entsp (lu6)     0x0
             0x0004040c: 00 73:       bu (u6)         0x0 <.label16>
.label16     0x0004040e: 00 73:       bu (u6)         0x0 <.label17>
.label17     0x00040410: 00 f0 10 58: ldw (lru6)      r0, dp[0x10]
             0x00040414: 08 e8:       setc (ru6)      res[r0], 0x8
             0x00040416: 00 f0 46 68: ldc (lru6)      r1, 0x6
             0x0004041a: d4 fe ec 0f: setclk (lr2r)   res[r0], r1
             0x0004041e: 00 73:       bu (u6)         0x0 <.label18>
.label18     0x00040420: c0 77:       retsp (u6)      0x0
             0x00040422: 00 00:       stw (2rus)      r0, r0[0x0]

<IOPortIn1.dtor>:
             0x00040424: 00 f0 40 77: entsp (lu6)     0x0
             0x00040428: 00 73:       bu (u6)         0x0 <.label19>
.label19     0x0004042a: 00 73:       bu (u6)         0x0 <.label20>
.label20     0x0004042c: 00 f0 10 58: ldw (lru6)      r0, dp[0x10]
             0x00040430: 00 e8:       setc (ru6)      res[r0], 0x0
             0x00040432: 00 73:       bu (u6)         0x0 <.label21>
.label21     0x00040434: c0 77:       retsp (u6)      0x0
             0x00040436: 00 00:       stw (2rus)      r0, r0[0x0]

<X_TX.ctor>:
             0x00040438: 00 f0 40 77: entsp (lu6)     0x0
             0x0004043c: 00 73:       bu (u6)         0x0 <.label22>
.label22     0x0004043e: 00 73:       bu (u6)         0x0 <.label23>
.label23     0x00040440: 00 f0 11 58: ldw (lru6)      r0, dp[0x11]
             0x00040444: 08 e8:       setc (ru6)      res[r0], 0x8
             0x00040446: 00 f0 46 68: ldc (lru6)      r1, 0x6
             0x0004044a: d4 fe ec 0f: setclk (lr2r)   res[r0], r1
             0x0004044e: 00 73:       bu (u6)         0x0 <.label24>
.label24     0x00040450: c0 77:       retsp (u6)      0x0
             0x00040452: 00 00:       stw (2rus)      r0, r0[0x0]

<X_TX.dtor>:
             0x00040454: 00 f0 40 77: entsp (lu6)     0x0
             0x00040458: 00 73:       bu (u6)         0x0 <.label25>
.label25     0x0004045a: 00 73:       bu (u6)         0x0 <.label26>
.label26     0x0004045c: 00 f0 11 58: ldw (lru6)      r0, dp[0x11]
             0x00040460: 00 e8:       setc (ru6)      res[r0], 0x0
             0x00040462: 00 73:       bu (u6)         0x0 <.label27>
.label27     0x00040464: c0 77:       retsp (u6)      0x0
             0x00040466: 00 00:       stw (2rus)      r0, r0[0x0]

<X_RX.ctor>:
             0x00040468: 00 f0 40 77: entsp (lu6)     0x0
             0x0004046c: 00 73:       bu (u6)         0x0 <.label28>
.label28     0x0004046e: 00 73:       bu (u6)         0x0 <.label29>
.label29     0x00040470: 00 f0 12 58: ldw (lru6)      r0, dp[0x12]
             0x00040474: 08 e8:       setc (ru6)      res[r0], 0x8
             0x00040476: 00 f0 46 68: ldc (lru6)      r1, 0x6
             0x0004047a: d4 fe ec 0f: setclk (lr2r)   res[r0], r1
             0x0004047e: 00 73:       bu (u6)         0x0 <.label30>
.label30     0x00040480: c0 77:       retsp (u6)      0x0
             0x00040482: 00 00:       stw (2rus)      r0, r0[0x0]

<X_RX.dtor>:
             0x00040484: 00 f0 40 77: entsp (lu6)     0x0
             0x00040488: 00 73:       bu (u6)         0x0 <.label31>
.label31     0x0004048a: 00 73:       bu (u6)         0x0 <.label32>
.label32     0x0004048c: 00 f0 12 58: ldw (lru6)      r0, dp[0x12]
             0x00040490: 00 e8:       setc (ru6)      res[r0], 0x0
             0x00040492: 00 73:       bu (u6)         0x0 <.label33>
.label33     0x00040494: c0 77:       retsp (u6)      0x0
             0x00040496: 00 00:       stw (2rus)      r0, r0[0x0]

<LED_SDI.ctor>:
             0x00040498: 00 f0 40 77: entsp (lu6)     0x0
             0x0004049c: 00 73:       bu (u6)         0x0 <.label34>
.label34     0x0004049e: 00 73:       bu (u6)         0x0 <.label35>
.label35     0x000404a0: 00 f0 13 58: ldw (lru6)      r0, dp[0x13]
             0x000404a4: 08 e8:       setc (ru6)      res[r0], 0x8
             0x000404a6: 00 f0 46 68: ldc (lru6)      r1, 0x6
             0x000404aa: d4 fe ec 0f: setclk (lr2r)   res[r0], r1
             0x000404ae: 00 73:       bu (u6)         0x0 <.label36>
.label36     0x000404b0: c0 77:       retsp (u6)      0x0
             0x000404b2: 00 00:       stw (2rus)      r0, r0[0x0]

<LED_SDI.dtor>:
             0x000404b4: 00 f0 40 77: entsp (lu6)     0x0
             0x000404b8: 00 73:       bu (u6)         0x0 <.label37>
.label37     0x000404ba: 00 73:       bu (u6)         0x0 <.label38>
.label38     0x000404bc: 00 f0 13 58: ldw (lru6)      r0, dp[0x13]
             0x000404c0: 00 e8:       setc (ru6)      res[r0], 0x0
             0x000404c2: 00 73:       bu (u6)         0x0 <.label39>
.label39     0x000404c4: c0 77:       retsp (u6)      0x0
             0x000404c6: 00 00:       stw (2rus)      r0, r0[0x0]

<BAT_STATUS.ctor>:
             0x000404c8: 00 f0 40 77: entsp (lu6)     0x0
             0x000404cc: 00 73:       bu (u6)         0x0 <.label40>
.label40     0x000404ce: 00 73:       bu (u6)         0x0 <.label41>
.label41     0x000404d0: 00 f0 14 58: ldw (lru6)      r0, dp[0x14]
             0x000404d4: 08 e8:       setc (ru6)      res[r0], 0x8
             0x000404d6: 00 f0 46 68: ldc (lru6)      r1, 0x6
             0x000404da: d4 fe ec 0f: setclk (lr2r)   res[r0], r1
             0x000404de: 00 73:       bu (u6)         0x0 <.label42>
.label42     0x000404e0: c0 77:       retsp (u6)      0x0
             0x000404e2: 00 00:       stw (2rus)      r0, r0[0x0]

<BAT_STATUS.dtor>:
             0x000404e4: 00 f0 40 77: entsp (lu6)     0x0
             0x000404e8: 00 73:       bu (u6)         0x0 <.label43>
.label43     0x000404ea: 00 73:       bu (u6)         0x0 <.label44>
.label44     0x000404ec: 00 f0 14 58: ldw (lru6)      r0, dp[0x14]
             0x000404f0: 00 e8:       setc (ru6)      res[r0], 0x0
             0x000404f2: 00 73:       bu (u6)         0x0 <.label45>
.label45     0x000404f4: c0 77:       retsp (u6)      0x0

<main>:
             0x000404f6: 42 77:       entsp (u6)      0x2
.label46     0x000404f8: c2 86:       getr (rus)      r0, 0x2
             0x000404fa: 02 74:       bt (ru6)        r0, -0x2 <.label46>
             0x000404fc: 7c f0 02 68: ldc (lru6)      r0, 0x1f02
             0x00040500: 00 f0 cf 6e: ldw (lru6)      r11, cp[0xf]
             0x00040504: 5c 17:       setd (r2r)      res[r0], r11
             0x00040506: d1 4e:       outct (rus)     res[r0], 0x1
             0x00040508: d1 ce:       chkct (rus)     res[r0], 0x1
             0x0004050a: 00 f0 40 58: ldw (lru6)      r1, dp[0x0]
             0x0004050e: 41 e8:       setc (ru6)      res[r1], 0x1
             0x00040510: c9 b6:       in (2r)         r2, res[r1]
             0x00040512: ed 07:       clre (0r)       
             0x00040514: ca 6a:       ldc (ru6)       r11, 0xa
             0x00040516: ab 14:       add (3r)        r2, r2, r11
             0x00040518: 49 e8:       setc (ru6)      res[r1], 0x9
             0x0004051a: d9 16:       setd (r2r)      res[r1], r2
             0x0004051c: 09 d8:       ldap (u10)      r11, 0x9 <.label47>
             0x0004051e: f1 47:       setv (1r)       res[r1], r11
             0x00040520: 06 d8:       ldap (u10)      r11, 0x6 <.label48>
             0x00040522: f0 47:       setv (1r)       res[r0], r11
             0x00040524: 41 7b:       setsr (u6)      0x1
             0x00040526: f0 07:       eeu (1r)        res[r0]
             0x00040528: ff 17:       nop (0r)        
             0x0004052a: f1 07:       eeu (1r)        res[r1]
             0x0004052c: ec 07:       waiteu (0r)     
.label48     0x0004052e: d1 ce:       chkct (rus)     res[r0], 0x1
.label47     0x00040530: 02 68:       ldc (ru6)       r0, 0x2
             0x00040532: 41 68:       ldc (ru6)       r1, 0x1
             0x00040534: 00 f0 40 7f: ldaw (lu6)      r11, cp[0x0]
.label49     0x00040538: 15 98:       sub (2rus)      r1, r1, 0x1
             0x0004053a: ad 49:       ldw (3r)        r2, r11[r1]
             0x0004053c: d8 16:       setd (r2r)      res[r0], r2
             0x0004053e: d0 0e:       outt (r2r)      res[r0], r0
             0x00040540: d1 4e:       outct (rus)     res[r0], 0x1
             0x00040542: 46 74:       bt (ru6)        r1, -0x6 <.label49>
             0x00040544: 05 68:       ldc (ru6)       r0, 0x5
             0x00040546: 00 f0 59 d0: bl (lu10)       0x59 <delay_ticks>
             0x0004054a: 00 f0 41 7f: ldaw (lu6)      r11, cp[0x1]
             0x0004054e: 00 68:       ldc (ru6)       r0, 0x0
             0x00040550: 60 68:       ldc (ru6)       r1, 0x20
             0x00040552: 02 69:       ldc (ru6)       r4, 0x2
.label52     0x00040554: ac 09:       ldw (2rus)      r2, r11[0x0]
             0x00040556: b8 ac:       shr (2rus)      r3, r2, 0x8
             0x00040558: 38 47:       zext (rus)      r2, 0x8
             0x0004055a: 58 30:       eq (3r)         r5, r2, r0
             0x0004055c: 47 79:       bf (ru6)        r5, 0x7 <.label50>
             0x0004055e: a8 a4:       shl (2rus)      r2, r2, 0x8
             0x00040560: 68 42:       or (3r)         r2, r2, r4
             0x00040562: bc a4:       shl (2rus)      r3, r3, 0x8
             0x00040564: 7c 42:       or (3r)         r3, r3, r4
             0x00040566: de 16:       setd (r2r)      res[r2], r3
             0x00040568: 7c 94:       add (2rus)      r11, r11, 0x4
             0x0004056a: 03 73:       bu (u6)         0x3 <.label51>
.label50     0x0004056c: a0 a4:       shl (2rus)      r2, r0, 0x8
             0x0004056e: 68 42:       or (3r)         r2, r2, r4
             0x00040570: e2 17:       freer (1r)      res[r2]
.label51     0x00040572: 01 90:       add (2rus)      r0, r0, 0x1
             0x00040574: 21 30:       eq (3r)         r2, r0, r1
             0x00040576: 92 7c:       bf (ru6)        r2, -0x12 <.label52>
             0x00040578: 02 68:       ldc (ru6)       r0, 0x2
             0x0004057a: 00 f0 2d d6: bl (lu10)       -0x22d <__main__main_tile_0>
             0x0004057e: 00 68:       ldc (ru6)       r0, 0x0
             0x00040580: c2 77:       retsp (u6)      0x2
             0x00040582: 00 00:       stw (2rus)      r0, r0[0x0]

<_get_cmdline>:
             0x00040584: 00 f0 40 77: entsp (lu6)     0x0
             0x00040588: 24 90:       add (2rus)      r2, r1, 0x0
             0x0004058a: 10 90:       add (2rus)      r1, r0, 0x0
             0x0004058c: 0d 68:       ldc (ru6)       r0, 0xd
             0x0004058e: 00 f0 4b d8: ldap (lu10)     r11, 0x4b <_DoSyscall>
             0x00040592: fb 27:       bau (1r)        r11

<__libc_done>:
             0x00040594: 00 f0 42 77: entsp (lu6)     0x2
             0x00040598: 00 68:       ldc (ru6)       r0, 0x0
             0x0004059a: 10 90:       add (2rus)      r1, r0, 0x0
             0x0004059c: 00 f0 4c d0: bl (lu10)       0x4c <__call_exitprocs>
             0x000405a0: 00 f0 50 d0: bl (lu10)       0x50 <_cleanup>
             0x000405a4: 00 f0 7e d3: bl (lu10)       0x37e <.label53>
             0x000405a8: 00 f0 52 d0: bl (lu10)       0x52 <_done>

<_exit_unlocked>:
             0x000405ac: 00 f0 44 77: entsp (lu6)     0x4
             0x000405b0: 02 55:       stw (ru6)       r4, sp[0x2]
             0x000405b2: 40 90:       add (2rus)      r4, r0, 0x0
             0x000405b4: 40 68:       ldc (ru6)       r1, 0x0
             0x000405b6: 00 f0 3f d0: bl (lu10)       0x3f <__call_exitprocs>
             0x000405ba: 00 f0 43 d0: bl (lu10)       0x43 <_cleanup>
             0x000405be: 00 f0 71 d3: bl (lu10)       0x371 <.label53>
             0x000405c2: c0 90:       add (2rus)      r0, r4, 0x0
             0x000405c4: 00 f0 4c d0: bl (lu10)       0x4c <_exit>

<_DoException>:
             0x000405c8: 00 f0 40 77: entsp (lu6)     0x0
             0x000405cc: ed 07:       clre (0r)       
             0x000405ce: ec 07:       waiteu (0r)     

<memset>:
             0x000405d0: 00 f0 c3 6e: ldw (lru6)      r11, cp[0x3]
             0x000405d4: ff 17:       nop (0r)        
             0x000405d6: fb 27:       bau (1r)        r11

<__init_threadlocal_timer>:
             0x000405d8: 00 f0 40 77: entsp (lu6)     0x0
             0x000405dc: c9 86:       getr (rus)      r2, 0x1
             0x000405de: 00 f0 40 60: ldaw (lru6)     r1, dp[0x0]
             0x000405e2: ee 17:       get (0r)        r11, id
             0x000405e4: a7 fc ec 07: stw (l3r)       r2, r1[r11]
             0x000405e8: c0 77:       retsp (u6)      0x0
             0x000405ea: 00 00:       stw (2rus)      r0, r0[0x0]

<__free_threadlocal_timer>:
.label112    0x000405ec: 00 f0 40 77: entsp (lu6)     0x0
             0x000405f0: 00 f0 80 60: ldaw (lru6)     r2, dp[0x0]
             0x000405f4: ee 17:       get (0r)        r11, id
             0x000405f6: ab 4c:       ldw (3r)        r2, r2[r11]
             0x000405f8: e2 17:       freer (1r)      res[r2]
             0x000405fa: c0 77:       retsp (u6)      0x0

<delay_ticks>:
             0x000405fc: 00 f0 40 77: entsp (lu6)     0x0
             0x00040600: e1 8f:       gettime (1r)    r1
             0x00040602: ee 17:       get (0r)        r11, id
             0x00040604: 00 f0 80 60: ldaw (lru6)     r2, dp[0x0]
             0x00040608: ab 4c:       ldw (3r)        r2, r2[r11]
             0x0004060a: 30 f8 ec 97: ashr (l2rus)    r3, r0, 0x20
             0x0004060e: c6 78:       bf (ru6)        r3, 0x6 <.label54>
             0x00040610: 00 f0 d0 6c: ldw (lru6)      r3, cp[0x10]
             0x00040614: 37 10:       add (3r)        r3, r1, r3
             0x00040616: de 16:       setd (r2r)      res[r2], r3
             0x00040618: 89 e8:       setc (ru6)      res[r2], 0x9
             0x0004061a: ce b6:       in (2r)         r3, res[r2]
.label54     0x0004061c: 04 10:       add (3r)        r0, r1, r0
             0x0004061e: d2 16:       setd (r2r)      res[r2], r0
             0x00040620: 89 e8:       setc (ru6)      res[r2], 0x9
             0x00040622: c2 b6:       in (2r)         r0, res[r2]
             0x00040624: c0 77:       retsp (u6)      0x0
             0x00040626: 00 00:       stw (2rus)      r0, r0[0x0]

<_DoSyscall>:
             0x00040628: 00 f0 40 77: entsp (lu6)     0x0
             0x0004062c: d0 a6:       mkmsk (rus)     r0, 0x20
             0x0004062e: c0 77:       retsp (u6)      0x0

<__call_exitprocs_impl>:
             0x00040630: 00 f0 40 77: entsp (lu6)     0x0
             0x00040634: c0 77:       retsp (u6)      0x0
             0x00040636: 00 00:       stw (2rus)      r0, r0[0x0]

<__call_exitprocs>:
             0x00040638: 00 f0 42 77: entsp (lu6)     0x2
             0x0004063c: 00 f0 08 d4: bl (lu10)       -0x8 <__call_exitprocs_impl>
             0x00040640: c2 77:       retsp (u6)      0x2
             0x00040642: 00 00:       stw (2rus)      r0, r0[0x0]

<_cleanup>:
             0x00040644: 00 f0 42 77: entsp (lu6)     0x2
             0x00040648: 00 f0 c6 d0: bl (lu10)       0xc6 <_cleanup_impl>
             0x0004064c: c2 77:       retsp (u6)      0x2
             0x0004064e: 00 00:       stw (2rus)      r0, r0[0x0]

<_done>:
             0x00040650: 00 f0 40 77: entsp (lu6)     0x0
             0x00040654: 07 68:       ldc (ru6)       r0, 0x7
             0x00040656: 00 f0 19 d4: bl (lu10)       -0x19 <_DoSyscall>
             0x0004065a: ed 07:       clre (0r)       
             0x0004065c: ec 07:       waiteu (0r)     
             0x0004065e: 00 00:       stw (2rus)      r0, r0[0x0]

<_exit>:
             0x00040660: 00 f0 40 77: entsp (lu6)     0x0
             0x00040664: 10 90:       add (2rus)      r1, r0, 0x0
             0x00040666: 00 68:       ldc (ru6)       r0, 0x0
             0x00040668: 00 f0 22 d4: bl (lu10)       -0x22 <_DoSyscall>
             0x0004066c: ed 07:       clre (0r)       
             0x0004066e: ec 07:       waiteu (0r)     

<__alloc_libc_hwlock>:
.label111    0x00040670: 00 f0 40 77: entsp (lu6)     0x0
             0x00040674: 81 87:       getr (rus)      r0, 0x5
             0x00040676: 00 f0 1c 50: stw (lru6)      r0, dp[0x1c]
             0x0004067a: c0 77:       retsp (u6)      0x0

<__lock_fair_acquire>:
             0x0004067c: 00 f0 40 77: entsp (lu6)     0x0
             0x00040680: 00 f0 5c 58: ldw (lru6)      r1, dp[0x1c]
             0x00040684: c5 b6:       in (2r)         r1, res[r1]
             0x00040686: 10 08:       ldw (2rus)      r1, r0[0x0]
             0x00040688: 25 90:       add (2rus)      r2, r1, 0x1
             0x0004068a: 20 00:       stw (2rus)      r2, r0[0x0]
             0x0004068c: 00 f0 9c 58: ldw (lru6)      r2, dp[0x1c]
             0x00040690: ca ae:       out (r2r)       res[r2], r2
.label55     0x00040692: 21 08:       ldw (2rus)      r2, r0[0x1]
             0x00040694: 29 30:       eq (3r)         r2, r2, r1
             0x00040696: 83 7c:       bf (ru6)        r2, -0x3 <.label55>
             0x00040698: c0 77:       retsp (u6)      0x0
             0x0004069a: 00 00:       stw (2rus)      r0, r0[0x0]

<__lock_fair_release>:
             0x0004069c: 00 f0 40 77: entsp (lu6)     0x0
             0x000406a0: 11 08:       ldw (2rus)      r1, r0[0x1]
             0x000406a2: 15 90:       add (2rus)      r1, r1, 0x1
             0x000406a4: 11 00:       stw (2rus)      r1, r0[0x1]
             0x000406a6: c0 77:       retsp (u6)      0x0

<__lock_recursive_init>:
             0x000406a8: 00 f0 40 77: entsp (lu6)     0x0
             0x000406ac: d4 a6:       mkmsk (rus)     r1, 0x20
             0x000406ae: 10 00:       stw (2rus)      r1, r0[0x0]
             0x000406b0: 40 68:       ldc (ru6)       r1, 0x0
             0x000406b2: 11 00:       stw (2rus)      r1, r0[0x1]
             0x000406b4: c0 77:       retsp (u6)      0x0
             0x000406b6: 00 00:       stw (2rus)      r0, r0[0x0]

<__lock_recursive_acquire>:
             0x000406b8: 00 f0 40 77: entsp (lu6)     0x0
             0x000406bc: ee 17:       get (0r)        r11, id
             0x000406be: 10 08:       ldw (2rus)      r1, r0[0x0]
             0x000406c0: 97 34:       eq (3r)         r1, r1, r11
             0x000406c2: 53 70:       bt (ru6)        r1, 0x13 <.label56>
             0x000406c4: 00 f0 5c 58: ldw (lru6)      r1, dp[0x1c]
             0x000406c8: c5 b6:       in (2r)         r1, res[r1]
             0x000406ca: 20 08:       ldw (2rus)      r2, r0[0x0]
             0x000406cc: d4 a6:       mkmsk (rus)     r1, 0x20
             0x000406ce: 07 73:       bu (u6)         0x7 <.label57>
.label58     0x000406d0: 00 f0 9c 58: ldw (lru6)      r2, dp[0x1c]
             0x000406d4: ca ae:       out (r2r)       res[r2], r2
             0x000406d6: 00 f0 9c 58: ldw (lru6)      r2, dp[0x1c]
             0x000406da: ca b6:       in (2r)         r2, res[r2]
             0x000406dc: 20 08:       ldw (2rus)      r2, r0[0x0]
.label57     0x000406de: 29 30:       eq (3r)         r2, r2, r1
             0x000406e0: 89 7c:       bf (ru6)        r2, -0x9 <.label58>
             0x000406e2: b0 00:       stw (2rus)      r11, r0[0x0]
             0x000406e4: 00 f0 5c 58: ldw (lru6)      r1, dp[0x1c]
             0x000406e8: c5 ae:       out (r2r)       res[r1], r1
.label56     0x000406ea: 11 08:       ldw (2rus)      r1, r0[0x1]
             0x000406ec: 15 90:       add (2rus)      r1, r1, 0x1
             0x000406ee: 11 00:       stw (2rus)      r1, r0[0x1]
             0x000406f0: c0 77:       retsp (u6)      0x0
             0x000406f2: 00 00:       stw (2rus)      r0, r0[0x0]

<__lock_recursive_release>:
             0x000406f4: 00 f0 40 77: entsp (lu6)     0x0
             0x000406f8: 11 08:       ldw (2rus)      r1, r0[0x1]
             0x000406fa: 15 98:       sub (2rus)      r1, r1, 0x1
             0x000406fc: 11 00:       stw (2rus)      r1, r0[0x1]
             0x000406fe: 48 70:       bt (ru6)        r1, 0x8 <.label59>
             0x00040700: 00 f0 5c 58: ldw (lru6)      r1, dp[0x1c]
             0x00040704: c5 b6:       in (2r)         r1, res[r1]
             0x00040706: d4 a6:       mkmsk (rus)     r1, 0x20
             0x00040708: 10 00:       stw (2rus)      r1, r0[0x0]
             0x0004070a: 00 f0 1c 58: ldw (lru6)      r0, dp[0x1c]
             0x0004070e: c0 ae:       out (r2r)       res[r0], r0
.label59     0x00040710: c0 77:       retsp (u6)      0x0
             0x00040712: 00 00:       stw (2rus)      r0, r0[0x0]

<__sfp_lock_acquire>:
             0x00040714: 00 f0 42 77: entsp (lu6)     0x2
             0x00040718: 00 f0 0b 60: ldaw (lru6)     r0, dp[0xb]
             0x0004071c: 00 f0 34 d4: bl (lu10)       -0x34 <__lock_recursive_acquire>
             0x00040720: c2 77:       retsp (u6)      0x2
             0x00040722: 00 00:       stw (2rus)      r0, r0[0x0]

<__sinit>:
             0x00040724: 00 f0 44 77: entsp (lu6)     0x4
             0x00040728: 02 55:       stw (ru6)       r4, sp[0x2]
             0x0004072a: 00 f0 0d 60: ldaw (lru6)     r0, dp[0xd]
             0x0004072e: 00 f0 3d d4: bl (lu10)       -0x3d <__lock_recursive_acquire>
             0x00040732: 00 f0 1d 58: ldw (lru6)      r0, dp[0x1d]
             0x00040736: 1e 70:       bt (ru6)        r0, 0x1e <.label60>
             0x00040738: 80 68:       ldc (ru6)       r2, 0x0
             0x0004073a: 00 f0 96 50: stw (lru6)      r2, dp[0x16]
             0x0004073e: d2 a6:       mkmsk (rus)     r0, 0x2
             0x00040740: 00 f0 17 50: stw (lru6)      r0, dp[0x17]
             0x00040744: 00 f0 1e 60: ldaw (lru6)     r0, dp[0x1e]
             0x00040748: 00 f0 18 50: stw (lru6)      r0, dp[0x18]
             0x0004074c: 00 f0 08 58: ldw (lru6)      r0, dp[0x8]
             0x00040750: 44 68:       ldc (ru6)       r1, 0x4
             0x00040752: 00 f0 1d d0: bl (lu10)       0x1d <std>
             0x00040756: 00 f0 09 58: ldw (lru6)      r0, dp[0x9]
             0x0004075a: 49 68:       ldc (ru6)       r1, 0x9
             0x0004075c: 11 a7:       mkmsk (rus)     r4, 0x1
             0x0004075e: e0 90:       add (2rus)      r2, r4, 0x0
             0x00040760: 00 f0 16 d0: bl (lu10)       0x16 <std>
             0x00040764: 00 f0 0a 58: ldw (lru6)      r0, dp[0xa]
             0x00040768: 52 68:       ldc (ru6)       r1, 0x12
             0x0004076a: 82 68:       ldc (ru6)       r2, 0x2
             0x0004076c: 00 f0 10 d0: bl (lu10)       0x10 <std>
             0x00040770: 00 f0 1d 51: stw (lru6)      r4, dp[0x1d]
.label60     0x00040774: 00 f0 0d 60: ldaw (lru6)     r0, dp[0xd]
             0x00040778: 00 f0 44 d4: bl (lu10)       -0x44 <__lock_recursive_release>
             0x0004077c: 02 5d:       ldw (ru6)       r4, sp[0x2]
             0x0004077e: c4 77:       retsp (u6)      0x4

<__sfp_lock_release>:
             0x00040780: 00 f0 42 77: entsp (lu6)     0x2
             0x00040784: 00 f0 0b 60: ldaw (lru6)     r0, dp[0xb]
             0x00040788: 00 f0 4c d4: bl (lu10)       -0x4c <__lock_recursive_release>
             0x0004078c: c2 77:       retsp (u6)      0x2
             0x0004078e: 00 00:       stw (2rus)      r0, r0[0x0]

<std>:
             0x00040790: 00 f0 42 77: entsp (lu6)     0x2
             0x00040794: c0 68:       ldc (ru6)       r3, 0x0
             0x00040796: 30 00:       stw (2rus)      r3, r0[0x0]
             0x00040798: 31 00:       stw (2rus)      r3, r0[0x1]
             0x0004079a: 32 00:       stw (2rus)      r3, r0[0x2]
             0x0004079c: b3 f8 ec 9f: ldaw (l2rus)    r11, r0[0x3]
             0x000407a0: 9f f9 ec 87: st16 (l3r)      r1, r11[r3]
             0x000407a4: 4e 68:       ldc (ru6)       r1, 0xe
             0x000407a6: 11 10:       add (3r)        r1, r0, r1
             0x000407a8: 27 f8 ec 87: st16 (l3r)      r2, r1[r3]
             0x000407ac: 70 02:       stw (2rus)      r3, r0[0x4]
             0x000407ae: 71 02:       stw (2rus)      r3, r0[0x5]
             0x000407b0: 72 02:       stw (2rus)      r3, r0[0x6]
             0x000407b2: 43 02:       stw (2rus)      r0, r0[0x7]
             0x000407b4: 00 f0 a2 d9: ldap (lu10)     r11, 0x1a2 <__sread>
             0x000407b8: 30 05:       stw (2rus)      r11, r0[0x8]
             0x000407ba: 00 f0 c1 d9: ldap (lu10)     r11, 0x1c1 <__swrite>
             0x000407be: 31 05:       stw (2rus)      r11, r0[0x9]
             0x000407c0: 00 f0 ec d9: ldap (lu10)     r11, 0x1ec <__sseek>
             0x000407c4: 32 05:       stw (2rus)      r11, r0[0xa]
             0x000407c6: 00 f0 0f da: ldap (lu10)     r11, 0x20f <__sclose>
             0x000407ca: 33 05:       stw (2rus)      r11, r0[0xb]
             0x000407cc: 01 f0 54 68: ldc (lru6)      r1, 0x54
             0x000407d0: 01 10:       add (3r)        r0, r0, r1
             0x000407d2: 00 f0 97 d4: bl (lu10)       -0x97 <__lock_recursive_init>
             0x000407d6: c2 77:       retsp (u6)      0x2

<_cleanup_impl>:
             0x000407d8: 00 f0 42 77: entsp (lu6)     0x2
             0x000407dc: 00 f0 82 d9: ldap (lu10)     r11, 0x182 <fflush>
             0x000407e0: 8c 91:       add (2rus)      r0, r11, 0x0
             0x000407e2: 00 f0 51 d0: bl (lu10)       0x51 <_fwalk>
             0x000407e6: c2 77:       retsp (u6)      0x2

<__free>:
             0x000407e8: 00 f0 40 77: entsp (lu6)     0x0
             0x000407ec: 84 77:       extsp (u6)      0x4
             0x000407ee: 04 f9 ec f7: std (l2rus)     r5, r4, sp[0x0]
             0x000407f2: 82 55:       stw (ru6)       r6, sp[0x2]
             0x000407f4: 2e 78:       bf (ru6)        r0, 0x2e <.label61>
             0x000407f6: 40 9a:       sub (2rus)      r0, r0, 0x4
             0x000407f8: 01 f0 63 58: ldw (lru6)      r1, dp[0x63]
             0x000407fc: c0 68:       ldc (ru6)       r3, 0x0
             0x000407fe: 50 78:       bf (ru6)        r1, 0x10 <.label62>
             0x00040800: b0 08:       ldw (2rus)      r11, r0[0x0]
             0x00040802: cc 11:       add (3r)        r4, r11, r0
             0x00040804: 01 f0 a3 60: ldaw (lru6)     r2, dp[0x63]
.label66     0x00040808: 54 08:       ldw (2rus)      r5, r1[0x0]
             0x0004080a: 25 11:       add (3r)        r6, r5, r1
             0x0004080c: 28 31:       eq (3r)         r6, r6, r0
             0x0004080e: 8b 71:       bt (ru6)        r6, 0xb <.label63>
             0x00040810: a4 32:       eq (3r)         r6, r1, r4
             0x00040812: 97 71:       bt (ru6)        r6, 0x17 <.label64>
             0x00040814: 51 c8:       lsu (3r)        r5, r0, r1
             0x00040816: 5a 71:       bt (ru6)        r5, 0x1a <.label65>
             0x00040818: 64 92:       add (2rus)      r2, r1, 0x4
             0x0004081a: 18 08:       ldw (2rus)      r1, r2[0x0]
             0x0004081c: 4b 74:       bt (ru6)        r1, -0xb <.label66>
             0x0004081e: 17 73:       bu (u6)         0x17 <.label67>
.label62     0x00040820: 01 f0 a3 60: ldaw (lru6)     r2, dp[0x63]
             0x00040824: 14 73:       bu (u6)         0x14 <.label67>
.label63     0x00040826: ed 13:       add (3r)        r2, r11, r5
             0x00040828: 24 00:       stw (2rus)      r2, r1[0x0]
             0x0004082a: 35 08:       ldw (2rus)      r3, r1[0x1]
             0x0004082c: d2 78:       bf (ru6)        r3, 0x12 <.label61>
             0x0004082e: b0 08:       ldw (2rus)      r11, r0[0x0]
             0x00040830: 8c 11:       add (3r)        r0, r11, r0
             0x00040832: 03 30:       eq (3r)         r0, r0, r3
             0x00040834: 0e 78:       bf (ru6)        r0, 0xe <.label61>
             0x00040836: 0c 08:       ldw (2rus)      r0, r3[0x0]
             0x00040838: 02 10:       add (3r)        r0, r0, r2
             0x0004083a: 04 00:       stw (2rus)      r0, r1[0x0]
             0x0004083c: 0d 08:       ldw (2rus)      r0, r3[0x1]
             0x0004083e: 05 00:       stw (2rus)      r0, r1[0x1]
             0x00040840: 08 73:       bu (u6)         0x8 <.label61>
.label64     0x00040842: fd 13:       add (3r)        r3, r11, r5
             0x00040844: 30 00:       stw (2rus)      r3, r0[0x0]
             0x00040846: 15 08:       ldw (2rus)      r1, r1[0x1]
             0x00040848: 11 00:       stw (2rus)      r1, r0[0x1]
             0x0004084a: 02 73:       bu (u6)         0x2 <.label68>
.label65     0x0004084c: 34 90:       add (2rus)      r3, r1, 0x0
.label67     0x0004084e: 31 00:       stw (2rus)      r3, r0[0x1]
.label68     0x00040850: 08 00:       stw (2rus)      r0, r2[0x0]
.label61     0x00040852: 82 5d:       ldw (ru6)       r6, sp[0x2]
             0x00040854: 04 f9 ec ef: ldd (l2rus)     r5, r4, sp[0x0]
             0x00040858: 84 67:       ldaw (ru6)      sp, sp[0x4]
             0x0004085a: c0 77:       retsp (u6)      0x0

<free>:
             0x0004085c: 00 f0 44 77: entsp (lu6)     0x4
             0x00040860: 02 55:       stw (ru6)       r4, sp[0x2]
             0x00040862: 40 90:       add (2rus)      r4, r0, 0x0
             0x00040864: 00 f0 ca d1: bl (lu10)       0x1ca <__malloc_lock>
             0x00040868: c0 90:       add (2rus)      r0, r4, 0x0
             0x0004086a: 00 f0 43 d4: bl (lu10)       -0x43 <__free>
             0x0004086e: 00 f0 cd d1: bl (lu10)       0x1cd <__malloc_unlock>
             0x00040872: 02 5d:       ldw (ru6)       r4, sp[0x2]
             0x00040874: c4 77:       retsp (u6)      0x4
             0x00040876: 00 00:       stw (2rus)      r0, r0[0x0]

<__errno>:
             0x00040878: 00 f0 40 77: entsp (lu6)     0x0
             0x0004087c: ee 17:       get (0r)        r11, id
             0x0004087e: 01 f0 24 60: ldaw (lru6)     r0, dp[0x64]
             0x00040882: 83 fc ec 1f: ldaw (l3r)      r0, r0[r11]
             0x00040886: c0 77:       retsp (u6)      0x0

<_fwalk>:
             0x00040888: 00 f0 4c 77: entsp (lu6)     0xc
             0x0004088c: 06 f9 ec f7: std (l2rus)     r5, r4, sp[0x2]
             0x00040890: 2f f9 ec f7: std (l2rus)     r7, r6, sp[0x3]
             0x00040894: 44 fc ec f7: std (l2rus)     r9, r8, sp[0x4]
             0x00040898: 8a 56:       stw (ru6)       r10, sp[0xa]
             0x0004089a: 03 54:       stw (ru6)       r0, sp[0x3]
             0x0004089c: 00 f0 c6 d4: bl (lu10)       -0xc6 <__sfp_lock_acquire>
             0x000408a0: c0 69:       ldc (ru6)       r7, 0x0
             0x000408a2: 00 f0 56 60: ldaw (lru6)     r1, dp[0x16]
             0x000408a6: 01 f0 9c 6a: ldc (lru6)      r10, 0x5c
             0x000408aa: 08 f0 40 6a: ldc (lru6)      r9, 0x200
             0x000408ae: 1c 91:       add (2rus)      r5, r7, 0x0
.label76     0x000408b0: 45 08:       ldw (2rus)      r4, r1[0x1]
             0x000408b2: d1 a6:       mkmsk (rus)     r0, 0x1
             0x000408b4: c0 c0:       lss (3r)        r0, r4, r0
             0x000408b6: 29 70:       bt (ru6)        r0, 0x29 <.label69>
             0x000408b8: 42 54:       stw (ru6)       r1, sp[0x2]
             0x000408ba: 66 08:       ldw (2rus)      r6, r1[0x2]
.label74     0x000408bc: 01 99:       sub (2rus)      r4, r4, 0x1
             0x000408be: 4b f9 ec 9f: ldaw (l2rus)    r8, r6[0x3]
             0x000408c2: c3 83:       ld16s (3r)      r0, r8[r7]
             0x000408c4: 31 47:       zext (rus)      r0, 0x10
             0x000408c6: 1d 78:       bf (ru6)        r0, 0x1d <.label70>
             0x000408c8: 91 3c:       and (3r)        r1, r0, r9
             0x000408ca: 48 70:       bt (ru6)        r1, 0x8 <.label71>
             0x000408cc: 01 f0 14 68: ldc (lru6)      r0, 0x54
             0x000408d0: c8 10:       add (3r)        r0, r6, r0
             0x000408d2: 00 f0 0f d5: bl (lu10)       -0x10f <__lock_recursive_acquire>
             0x000408d6: c3 83:       ld16s (3r)      r0, r8[r7]
             0x000408d8: 31 47:       zext (rus)      r0, 0x10
             0x000408da: 0e 78:       bf (ru6)        r0, 0xe <.label72>
.label71     0x000408dc: 4e 68:       ldc (ru6)       r1, 0xe
             0x000408de: d9 10:       add (3r)        r1, r6, r1
             0x000408e0: 57 82:       ld16s (3r)      r1, r1[r7]
             0x000408e2: 35 47:       zext (rus)      r1, 0x10
             0x000408e4: 39 a7:       mkmsk (rus)     r2, 0x10
             0x000408e6: 16 30:       eq (3r)         r1, r1, r2
             0x000408e8: 45 70:       bt (ru6)        r1, 0x5 <.label73>
             0x000408ea: c8 90:       add (2rus)      r0, r6, 0x0
             0x000408ec: 43 5c:       ldw (ru6)       r1, sp[0x3]
             0x000408ee: e1 27:       bla (1r)        r1
             0x000408f0: 91 42:       or (3r)         r5, r0, r5
             0x000408f2: c3 83:       ld16s (3r)      r0, r8[r7]
.label73     0x000408f4: 81 3c:       and (3r)        r0, r0, r9
             0x000408f6: 05 70:       bt (ru6)        r0, 0x5 <.label70>
.label72     0x000408f8: 01 f0 14 68: ldc (lru6)      r0, 0x54
             0x000408fc: c8 10:       add (3r)        r0, r6, r0
             0x000408fe: 00 f0 07 d5: bl (lu10)       -0x107 <__lock_recursive_release>
.label70     0x00040902: aa 15:       add (3r)        r6, r6, r10
             0x00040904: 0c c3:       lss (3r)        r0, r7, r4
             0x00040906: 26 74:       bt (ru6)        r0, -0x26 <.label74>
             0x00040908: 01 73:       bu (u6)         0x1 <.label75>
.label69     0x0004090a: 42 54:       stw (ru6)       r1, sp[0x2]
.label75     0x0004090c: 42 5c:       ldw (ru6)       r1, sp[0x2]
             0x0004090e: 14 08:       ldw (2rus)      r1, r1[0x0]
             0x00040910: 71 74:       bt (ru6)        r1, -0x31 <.label76>
             0x00040912: 00 f0 cb d4: bl (lu10)       -0xcb <__sfp_lock_release>
             0x00040916: c4 90:       add (2rus)      r0, r5, 0x0
             0x00040918: 8a 5e:       ldw (ru6)       r10, sp[0xa]
             0x0004091a: 44 fc ec ef: ldd (l2rus)     r9, r8, sp[0x4]
             0x0004091e: 2f f9 ec ef: ldd (l2rus)     r7, r6, sp[0x3]
             0x00040922: 06 f9 ec ef: ldd (l2rus)     r5, r4, sp[0x2]
             0x00040926: cc 77:       retsp (u6)      0xc

<_fflush>:
             0x00040928: 00 f0 4a 77: entsp (lu6)     0xa
             0x0004092c: 05 f9 ec f7: std (l2rus)     r5, r4, sp[0x1]
             0x00040930: 2e f9 ec f7: std (l2rus)     r7, r6, sp[0x2]
             0x00040934: 07 fa ec f7: std (l2rus)     r9, r8, sp[0x3]
             0x00040938: 88 56:       stw (ru6)       r10, sp[0x8]
             0x0004093a: 40 90:       add (2rus)      r4, r0, 0x0
             0x0004093c: 00 f0 1d 58: ldw (lru6)      r0, dp[0x1d]
             0x00040940: 02 70:       bt (ru6)        r0, 0x2 <.label77>
             0x00040942: 00 f0 11 d5: bl (lu10)       -0x111 <__sinit>
.label77     0x00040946: 53 f9 ec 9f: ldaw (l2rus)    r9, r4[0x3]
             0x0004094a: c0 69:       ldc (ru6)       r7, 0x0
             0x0004094c: c7 83:       ld16s (3r)      r0, r9[r7]
             0x0004094e: 08 f0 00 6a: ldc (lru6)      r8, 0x200
             0x00040952: 90 3c:       and (3r)        r1, r0, r8
             0x00040954: 42 78:       bf (ru6)        r1, 0x2 <.label78>
             0x00040956: 31 47:       zext (rus)      r0, 0x10
             0x00040958: 07 73:       bu (u6)         0x7 <.label79>
.label78     0x0004095a: 01 f0 14 68: ldc (lru6)      r0, 0x54
             0x0004095e: c0 10:       add (3r)        r0, r4, r0
             0x00040960: 00 f0 56 d5: bl (lu10)       -0x156 <__lock_recursive_acquire>
             0x00040964: 00 68:       ldc (ru6)       r0, 0x0
             0x00040966: 84 81:       ld16s (3r)      r0, r9[r0]
.label79     0x00040968: 10 90:       add (2rus)      r1, r0, 0x0
             0x0004096a: 35 37:       sext (rus)      r1, 0x10
             0x0004096c: 88 68:       ldc (ru6)       r2, 0x8
             0x0004096e: 26 38:       and (3r)        r2, r1, r2
             0x00040970: 9c 78:       bf (ru6)        r2, 0x1c <.label80>
             0x00040972: 50 0b:       ldw (2rus)      r5, r4[0x4]
             0x00040974: 76 79:       bf (ru6)        r5, 0x36 <.label81>
             0x00040976: e0 08:       ldw (2rus)      r2, r4[0x0]
             0x00040978: a9 1a:       sub (3r)        r6, r2, r5
             0x0004097a: 10 01:       stw (2rus)      r5, r4[0x0]
             0x0004097c: d6 46:       zext (rus)      r1, 0x2
             0x0004097e: 41 70:       bt (ru6)        r1, 0x1 <.label82>
             0x00040980: 71 0b:       ldw (2rus)      r7, r4[0x5]
.label82     0x00040982: 32 01:       stw (2rus)      r7, r4[0x2]
             0x00040984: d5 a6:       mkmsk (rus)     r1, 0x1
             0x00040986: d9 c0:       lss (3r)        r1, r6, r1
             0x00040988: 4e 70:       bt (ru6)        r1, 0xe <.label83>
             0x0004098a: c0 69:       ldc (ru6)       r7, 0x0
.label85     0x0004098c: f1 0d:       ldw (2rus)      r11, r4[0x9]
             0x0004098e: 13 0b:       ldw (2rus)      r1, r4[0x7]
             0x00040990: cc 90:       add (2rus)      r0, r7, 0x0
             0x00040992: e4 90:       add (2rus)      r2, r5, 0x0
             0x00040994: f8 90:       add (2rus)      r3, r6, 0x0
             0x00040996: eb 27:       bla (1r)        r11
             0x00040998: dc c0:       lss (3r)        r1, r7, r0
             0x0004099a: 69 78:       bf (ru6)        r1, 0x29 <.label84>
             0x0004099c: 14 11:       add (3r)        r5, r5, r0
             0x0004099e: 28 19:       sub (3r)        r6, r6, r0
             0x000409a0: 0e c3:       lss (3r)        r0, r7, r6
             0x000409a2: 0c 74:       bt (ru6)        r0, -0xc <.label85>
             0x000409a4: c7 83:       ld16s (3r)      r0, r9[r7]
.label83     0x000409a6: 80 3c:       and (3r)        r0, r0, r8
             0x000409a8: 1d 73:       bu (u6)         0x1d <.label86>
.label80     0x000409aa: 20 f0 00 68: ldc (lru6)      r0, 0x800
             0x000409ae: 14 40:       or (3r)         r1, r1, r0
             0x000409b0: 80 6a:       ldc (ru6)       r10, 0x0
             0x000409b2: 16 fe ec 87: st16 (l3r)      r1, r9[r10]
             0x000409b6: c1 08:       ldw (2rus)      r0, r4[0x1]
             0x000409b8: 88 c1:       lss (3r)        r0, r10, r0
             0x000409ba: 07 70:       bt (ru6)        r0, 0x7 <.label87>
             0x000409bc: 3c 68:       ldc (ru6)       r0, 0x3c
             0x000409be: c0 10:       add (3r)        r0, r4, r0
             0x000409c0: 00 08:       ldw (2rus)      r0, r0[0x0]
             0x000409c2: d9 a6:       mkmsk (rus)     r2, 0x1
             0x000409c4: 02 c0:       lss (3r)        r0, r0, r2
             0x000409c6: 01 f0 1b 70: bt (lru6)       r0, 0x5b <.label88>
.label87     0x000409ca: 92 0d:       ldw (2rus)      r5, r4[0xa]
             0x000409cc: 01 f0 58 79: bf (lru6)       r5, 0x58 <.label88>
             0x000409d0: 40 f0 c0 69: ldc (lru6)      r7, 0x1000
             0x000409d4: 47 3a:       and (3r)        r0, r1, r7
             0x000409d6: 14 78:       bf (ru6)        r0, 0x14 <.label89>
             0x000409d8: 01 f0 10 68: ldc (lru6)      r0, 0x50
             0x000409dc: c0 10:       add (3r)        r0, r4, r0
             0x000409de: 60 08:       ldw (2rus)      r6, r0[0x0]
             0x000409e0: 1d 73:       bu (u6)         0x1d <.label90>
.label81     0x000409e2: 84 3c:       and (3r)        r0, r1, r8
.label86     0x000409e4: 40 69:       ldc (ru6)       r5, 0x0
             0x000409e6: 01 f0 34 70: bt (lru6)       r0, 0x74 <.label91>
             0x000409ea: 01 f0 2d 73: bu (lu6)        0x6d <.label92>
.label84     0x000409ee: c7 83:       ld16s (3r)      r0, r9[r7]
             0x000409f0: 01 f0 40 68: ldc (lru6)      r1, 0x40
             0x000409f4: 11 40:       or (3r)         r1, r0, r1
             0x000409f6: d7 fb ec 87: st16 (l3r)      r1, r9[r7]
             0x000409fa: 80 3c:       and (3r)        r0, r0, r8
             0x000409fc: 01 f0 0f 73: bu (lu6)        0x4f <.label93>
.label89     0x00040a00: 13 0b:       ldw (2rus)      r1, r4[0x7]
             0x00040a02: c0 69:       ldc (ru6)       r7, 0x0
             0x00040a04: dd a6:       mkmsk (rus)     r3, 0x1
             0x00040a06: cc 90:       add (2rus)      r0, r7, 0x0
             0x00040a08: ec 90:       add (2rus)      r2, r7, 0x0
             0x00040a0a: e5 27:       bla (1r)        r5
             0x00040a0c: 60 90:       add (2rus)      r6, r0, 0x0
             0x00040a0e: 14 a7:       mkmsk (rus)     r5, 0x20
             0x00040a10: 09 33:       eq (3r)         r0, r6, r5
             0x00040a12: 01 f0 07 70: bt (lru6)       r0, 0x47 <.label94>
             0x00040a16: d7 83:       ld16s (3r)      r1, r9[r7]
             0x00040a18: 40 f0 c0 69: ldc (lru6)      r7, 0x1000
.label90     0x00040a1c: 04 68:       ldc (ru6)       r0, 0x4
             0x00040a1e: 04 38:       and (3r)        r0, r1, r0
             0x00040a20: 0a 78:       bf (ru6)        r0, 0xa <.label95>
             0x00040a22: c1 08:       ldw (2rus)      r0, r4[0x1]
             0x00040a24: 28 19:       sub (3r)        r6, r6, r0
             0x00040a26: 30 68:       ldc (ru6)       r0, 0x30
             0x00040a28: c0 10:       add (3r)        r0, r4, r0
             0x00040a2a: 00 08:       ldw (2rus)      r0, r0[0x0]
             0x00040a2c: 04 78:       bf (ru6)        r0, 0x4 <.label95>
             0x00040a2e: 3c 68:       ldc (ru6)       r0, 0x3c
             0x00040a30: c0 10:       add (3r)        r0, r4, r0
             0x00040a32: 00 08:       ldw (2rus)      r0, r0[0x0]
             0x00040a34: 28 19:       sub (3r)        r6, r6, r0
.label95     0x00040a36: f2 0d:       ldw (2rus)      r11, r4[0xa]
             0x00040a38: 13 0b:       ldw (2rus)      r1, r4[0x7]
             0x00040a3a: 40 69:       ldc (ru6)       r5, 0x0
             0x00040a3c: c4 90:       add (2rus)      r0, r5, 0x0
             0x00040a3e: e8 90:       add (2rus)      r2, r6, 0x0
             0x00040a40: f4 90:       add (2rus)      r3, r5, 0x0
             0x00040a42: eb 27:       bla (1r)        r11
             0x00040a44: e5 83:       ld16s (3r)      r2, r9[r5]
             0x00040a46: 42 32:       eq (3r)         r0, r0, r6
             0x00040a48: 24 78:       bf (ru6)        r0, 0x24 <.label96>
             0x00040a4a: df f3 3f 68: ldc (lru6)      r0, 0xf7ff
             0x00040a4e: 18 38:       and (3r)        r1, r2, r0
             0x00040a50: d5 fb ec 87: st16 (l3r)      r1, r9[r5]
             0x00040a54: 11 01:       stw (2rus)      r5, r4[0x1]
             0x00040a56: 00 0b:       ldw (2rus)      r0, r4[0x4]
             0x00040a58: c0 00:       stw (2rus)      r0, r4[0x0]
             0x00040a5a: 4b 3a:       and (3r)        r0, r2, r7
             0x00040a5c: 04 78:       bf (ru6)        r0, 0x4 <.label97>
             0x00040a5e: 01 f0 10 68: ldc (lru6)      r0, 0x50
             0x00040a62: c0 10:       add (3r)        r0, r4, r0
             0x00040a64: 60 00:       stw (2rus)      r6, r0[0x0]
.label97     0x00040a66: 30 68:       ldc (ru6)       r0, 0x30
             0x00040a68: 20 11:       add (3r)        r6, r4, r0
             0x00040a6a: c8 08:       ldw (2rus)      r0, r6[0x0]
             0x00040a6c: 09 78:       bf (ru6)        r0, 0x9 <.label88>
             0x00040a6e: 01 f0 80 68: ldc (lru6)      r2, 0x40
             0x00040a72: e2 10:       add (3r)        r2, r4, r2
             0x00040a74: 22 30:       eq (3r)         r2, r0, r2
             0x00040a76: 83 70:       bt (ru6)        r2, 0x3 <.label98>
             0x00040a78: 00 f0 10 d5: bl (lu10)       -0x110 <free>
             0x00040a7c: d5 83:       ld16s (3r)      r1, r9[r5]
.label98     0x00040a7e: 18 01:       stw (2rus)      r5, r6[0x0]
.label88     0x00040a80: 84 3c:       and (3r)        r0, r1, r8
             0x00040a82: 05 70:       bt (ru6)        r0, 0x5 <.label99>
             0x00040a84: 01 f0 14 68: ldc (lru6)      r0, 0x54
             0x00040a88: c0 10:       add (3r)        r0, r4, r0
             0x00040a8a: 00 f0 cd d5: bl (lu10)       -0x1cd <__lock_recursive_release>
.label99     0x00040a8e: d8 91:       add (2rus)      r5, r10, 0x0
             0x00040a90: 20 73:       bu (u6)         0x20 <.label91>
.label96     0x00040a92: 01 f0 00 68: ldc (lru6)      r0, 0x40
             0x00040a96: 08 40:       or (3r)         r0, r2, r0
             0x00040a98: c5 fb ec 87: st16 (l3r)      r0, r9[r5]
             0x00040a9c: 88 3c:       and (3r)        r0, r2, r8
.label93     0x00040a9e: 14 a7:       mkmsk (rus)     r5, 0x20
             0x00040aa0: 18 70:       bt (ru6)        r0, 0x18 <.label91>
             0x00040aa2: 12 73:       bu (u6)         0x12 <.label92>
.label94     0x00040aa4: 00 f0 18 d5: bl (lu10)       -0x118 <__errno>
             0x00040aa8: 00 08:       ldw (2rus)      r0, r0[0x0]
             0x00040aaa: 5d 68:       ldc (ru6)       r1, 0x1d
             0x00040aac: 11 30:       eq (3r)         r1, r0, r1
             0x00040aae: c7 83:       ld16s (3r)      r0, r9[r7]
             0x00040ab0: 42 78:       bf (ru6)        r1, 0x2 <.label100>
             0x00040ab2: 1c 91:       add (2rus)      r5, r7, 0x0
             0x00040ab4: 07 73:       bu (u6)         0x7 <.label101>
.label100    0x00040ab6: 01 f0 40 68: ldc (lru6)      r1, 0x40
             0x00040aba: 01 40:       or (3r)         r0, r0, r1
             0x00040abc: 31 47:       zext (rus)      r0, 0x10
             0x00040abe: 40 68:       ldc (ru6)       r1, 0x0
             0x00040ac0: 85 f9 ec 87: st16 (l3r)      r0, r9[r1]
.label101    0x00040ac4: 80 3c:       and (3r)        r0, r0, r8
             0x00040ac6: 05 70:       bt (ru6)        r0, 0x5 <.label91>
.label92     0x00040ac8: 01 f0 14 68: ldc (lru6)      r0, 0x54
             0x00040acc: c0 10:       add (3r)        r0, r4, r0
             0x00040ace: 00 f0 ef d5: bl (lu10)       -0x1ef <__lock_recursive_release>
.label91     0x00040ad2: c4 90:       add (2rus)      r0, r5, 0x0
             0x00040ad4: 88 5e:       ldw (ru6)       r10, sp[0x8]
             0x00040ad6: 07 fa ec ef: ldd (l2rus)     r9, r8, sp[0x3]
             0x00040ada: 2e f9 ec ef: ldd (l2rus)     r7, r6, sp[0x2]
             0x00040ade: 05 f9 ec ef: ldd (l2rus)     r5, r4, sp[0x1]
             0x00040ae2: ca 77:       retsp (u6)      0xa

<fflush>:
             0x00040ae4: 00 f0 42 77: entsp (lu6)     0x2
             0x00040ae8: 03 78:       bf (ru6)        r0, 0x3 <.label102>
             0x00040aea: 00 f0 e3 d4: bl (lu10)       -0xe3 <_fflush>
             0x00040aee: 04 73:       bu (u6)         0x4 <.label103>
.label102    0x00040af0: 07 dc:       ldap (u10)      r11, -0x7 <fflush>
             0x00040af2: 8c 91:       add (2rus)      r0, r11, 0x0
             0x00040af4: 00 f0 38 d5: bl (lu10)       -0x138 <_fwalk>
.label103    0x00040af8: c2 77:       retsp (u6)      0x2
             0x00040afa: 00 00:       stw (2rus)      r0, r0[0x0]

<__sread>:
             0x00040afc: 00 f0 44 77: entsp (lu6)     0x4
             0x00040b00: 05 f9 ec f7: std (l2rus)     r5, r4, sp[0x1]
             0x00040b04: 44 90:       add (2rus)      r4, r1, 0x0
             0x00040b06: 0e 68:       ldc (ru6)       r0, 0xe
             0x00040b08: c0 10:       add (3r)        r0, r4, r0
             0x00040b0a: 40 69:       ldc (ru6)       r5, 0x0
             0x00040b0c: 41 82:       ld16s (3r)      r0, r0[r5]
             0x00040b0e: 18 90:       add (2rus)      r1, r2, 0x0
             0x00040b10: 2c 90:       add (2rus)      r2, r3, 0x0
             0x00040b12: 00 f0 83 d0: bl (lu10)       0x83 <_read>
             0x00040b16: 10 f8 ec 97: ashr (l2rus)    r1, r0, 0x20
             0x00040b1a: 47 70:       bt (ru6)        r1, 0x7 <.label104>
             0x00040b1c: 01 f0 50 68: ldc (lru6)      r1, 0x50
             0x00040b20: d1 10:       add (3r)        r1, r4, r1
             0x00040b22: 24 08:       ldw (2rus)      r2, r1[0x0]
             0x00040b24: 28 10:       add (3r)        r2, r2, r0
             0x00040b26: 24 00:       stw (2rus)      r2, r1[0x0]
             0x00040b28: 08 73:       bu (u6)         0x8 <.label105>
.label104    0x00040b2a: d3 f8 ec 9f: ldaw (l2rus)    r1, r4[0x3]
             0x00040b2e: 65 82:       ld16s (3r)      r2, r1[r5]
             0x00040b30: bf f3 ff 68: ldc (lru6)      r3, 0xefff
             0x00040b34: 2b 38:       and (3r)        r2, r2, r3
             0x00040b36: 65 fa ec 87: st16 (l3r)      r2, r1[r5]
.label105    0x00040b3a: 05 f9 ec ef: ldd (l2rus)     r5, r4, sp[0x1]
             0x00040b3e: c4 77:       retsp (u6)      0x4

<__swrite>:
             0x00040b40: 00 f0 48 77: entsp (lu6)     0x8
             0x00040b44: 05 f9 ec f7: std (l2rus)     r5, r4, sp[0x1]
             0x00040b48: 2e f9 ec f7: std (l2rus)     r7, r6, sp[0x2]
             0x00040b4c: 06 56:       stw (ru6)       r8, sp[0x6]
             0x00040b4e: 4c 90:       add (2rus)      r4, r3, 0x0
             0x00040b50: 58 90:       add (2rus)      r5, r2, 0x0
             0x00040b52: 64 90:       add (2rus)      r6, r1, 0x0
             0x00040b54: 4b f9 ec 9f: ldaw (l2rus)    r8, r6[0x3]
             0x00040b58: c0 69:       ldc (ru6)       r7, 0x0
             0x00040b5a: c3 83:       ld16s (3r)      r0, r8[r7]
             0x00040b5c: 04 f0 40 68: ldc (lru6)      r1, 0x100
             0x00040b60: 11 38:       and (3r)        r1, r0, r1
             0x00040b62: 49 78:       bf (ru6)        r1, 0x9 <.label106>
             0x00040b64: 0e 68:       ldc (ru6)       r0, 0xe
             0x00040b66: c8 10:       add (3r)        r0, r6, r0
             0x00040b68: 43 82:       ld16s (3r)      r0, r0[r7]
             0x00040b6a: 82 68:       ldc (ru6)       r2, 0x2
             0x00040b6c: dc 90:       add (2rus)      r1, r7, 0x0
             0x00040b6e: 00 f0 69 d0: bl (lu10)       0x69 <_lseek>
             0x00040b72: c3 83:       ld16s (3r)      r0, r8[r7]
             0x00040b74: 01 73:       bu (u6)         0x1 <.label107>
.label106    0x00040b76: 31 47:       zext (rus)      r0, 0x10
.label107    0x00040b78: bf f3 7f 68: ldc (lru6)      r1, 0xefff
             0x00040b7c: 01 38:       and (3r)        r0, r0, r1
             0x00040b7e: c3 fb ec 87: st16 (l3r)      r0, r8[r7]
             0x00040b82: 0e 68:       ldc (ru6)       r0, 0xe
             0x00040b84: c8 10:       add (3r)        r0, r6, r0
             0x00040b86: 43 82:       ld16s (3r)      r0, r0[r7]
             0x00040b88: d4 90:       add (2rus)      r1, r5, 0x0
             0x00040b8a: e0 90:       add (2rus)      r2, r4, 0x0
             0x00040b8c: 00 f0 50 d0: bl (lu10)       0x50 <_write>
             0x00040b90: 06 5e:       ldw (ru6)       r8, sp[0x6]
             0x00040b92: 2e f9 ec ef: ldd (l2rus)     r7, r6, sp[0x2]
             0x00040b96: 05 f9 ec ef: ldd (l2rus)     r5, r4, sp[0x1]
             0x00040b9a: c8 77:       retsp (u6)      0x8

<__sseek>:
             0x00040b9c: 00 f0 44 77: entsp (lu6)     0x4
             0x00040ba0: 05 f9 ec f7: std (l2rus)     r5, r4, sp[0x1]
             0x00040ba4: 44 90:       add (2rus)      r4, r1, 0x0
             0x00040ba6: 0e 68:       ldc (ru6)       r0, 0xe
             0x00040ba8: c0 10:       add (3r)        r0, r4, r0
             0x00040baa: 40 69:       ldc (ru6)       r5, 0x0
             0x00040bac: 41 82:       ld16s (3r)      r0, r0[r5]
             0x00040bae: 18 90:       add (2rus)      r1, r2, 0x0
             0x00040bb0: 2c 90:       add (2rus)      r2, r3, 0x0
             0x00040bb2: 00 f0 47 d0: bl (lu10)       0x47 <_lseek>
             0x00040bb6: d3 f8 ec 9f: ldaw (l2rus)    r1, r4[0x3]
             0x00040bba: 65 82:       ld16s (3r)      r2, r1[r5]
             0x00040bbc: dc a6:       mkmsk (rus)     r3, 0x20
             0x00040bbe: 33 30:       eq (3r)         r3, r0, r3
             0x00040bc0: ca 70:       bt (ru6)        r3, 0xa <.label108>
             0x00040bc2: 40 f0 c0 68: ldc (lru6)      r3, 0x1000
             0x00040bc6: 2b 40:       or (3r)         r2, r2, r3
             0x00040bc8: 65 fa ec 87: st16 (l3r)      r2, r1[r5]
             0x00040bcc: 01 f0 50 68: ldc (lru6)      r1, 0x50
             0x00040bd0: d1 10:       add (3r)        r1, r4, r1
             0x00040bd2: 04 00:       stw (2rus)      r0, r1[0x0]
             0x00040bd4: 05 73:       bu (u6)         0x5 <.label109>
.label108    0x00040bd6: bf f3 ff 68: ldc (lru6)      r3, 0xefff
             0x00040bda: 2b 38:       and (3r)        r2, r2, r3
             0x00040bdc: 65 fa ec 87: st16 (l3r)      r2, r1[r5]
.label109    0x00040be0: 05 f9 ec ef: ldd (l2rus)     r5, r4, sp[0x1]
             0x00040be4: c4 77:       retsp (u6)      0x4
             0x00040be6: 00 00:       stw (2rus)      r0, r0[0x0]

<__sclose>:
             0x00040be8: 00 f0 42 77: entsp (lu6)     0x2
             0x00040bec: 0e 68:       ldc (ru6)       r0, 0xe
             0x00040bee: 04 10:       add (3r)        r0, r1, r0
             0x00040bf0: 40 68:       ldc (ru6)       r1, 0x0
             0x00040bf2: 01 80:       ld16s (3r)      r0, r0[r1]
             0x00040bf4: 00 f0 30 d0: bl (lu10)       0x30 <_close>
             0x00040bf8: c2 77:       retsp (u6)      0x2
             0x00040bfa: 00 00:       stw (2rus)      r0, r0[0x0]

<__malloc_lock>:
             0x00040bfc: 00 f0 42 77: entsp (lu6)     0x2
             0x00040c00: 01 f0 2c 60: ldaw (lru6)     r0, dp[0x6c]
             0x00040c04: 00 f0 c6 d6: bl (lu10)       -0x2c6 <__lock_fair_acquire>
             0x00040c08: c2 77:       retsp (u6)      0x2
             0x00040c0a: 00 00:       stw (2rus)      r0, r0[0x0]

<__malloc_unlock>:
             0x00040c0c: 00 f0 42 77: entsp (lu6)     0x2
             0x00040c10: 01 f0 2c 60: ldaw (lru6)     r0, dp[0x6c]
             0x00040c14: 00 f0 be d6: bl (lu10)       -0x2be <__lock_fair_release>
             0x00040c18: c2 77:       retsp (u6)      0x2
             0x00040c1a: 00 00:       stw (2rus)      r0, r0[0x0]

<_read>:
             0x00040c1c: 00 f0 40 77: entsp (lu6)     0x0
             0x00040c20: 38 90:       add (2rus)      r3, r2, 0x0
             0x00040c22: 24 90:       add (2rus)      r2, r1, 0x0
             0x00040c24: 10 90:       add (2rus)      r1, r0, 0x0
             0x00040c26: 05 68:       ldc (ru6)       r0, 0x5
             0x00040c28: 00 f0 1e d8: ldap (lu10)     r11, 0x1e <_DoSyscallErrno>
             0x00040c2c: fb 27:       bau (1r)        r11
             0x00040c2e: 00 00:       stw (2rus)      r0, r0[0x0]

<_write>:
             0x00040c30: 00 f0 40 77: entsp (lu6)     0x0
             0x00040c34: 38 90:       add (2rus)      r3, r2, 0x0
             0x00040c36: 24 90:       add (2rus)      r2, r1, 0x0
             0x00040c38: 10 90:       add (2rus)      r1, r0, 0x0
             0x00040c3a: 06 68:       ldc (ru6)       r0, 0x6
             0x00040c3c: 00 f0 14 d8: ldap (lu10)     r11, 0x14 <_DoSyscallErrno>
             0x00040c40: fb 27:       bau (1r)        r11
             0x00040c42: 00 00:       stw (2rus)      r0, r0[0x0]

<_lseek>:
             0x00040c44: 00 f0 40 77: entsp (lu6)     0x0
             0x00040c48: 38 90:       add (2rus)      r3, r2, 0x0
             0x00040c4a: 24 90:       add (2rus)      r2, r1, 0x0
             0x00040c4c: 10 90:       add (2rus)      r1, r0, 0x0
             0x00040c4e: 08 68:       ldc (ru6)       r0, 0x8
             0x00040c50: 00 f0 0a d8: ldap (lu10)     r11, 0xa <_DoSyscallErrno>
             0x00040c54: fb 27:       bau (1r)        r11
             0x00040c56: 00 00:       stw (2rus)      r0, r0[0x0]

<_close>:
             0x00040c58: 00 f0 40 77: entsp (lu6)     0x0
             0x00040c5c: 10 90:       add (2rus)      r1, r0, 0x0
             0x00040c5e: 04 68:       ldc (ru6)       r0, 0x4
             0x00040c60: 00 f0 02 d8: ldap (lu10)     r11, 0x2 <_DoSyscallErrno>
             0x00040c64: fb 27:       bau (1r)        r11
             0x00040c66: 00 00:       stw (2rus)      r0, r0[0x0]

<_DoSyscallErrno>:
             0x00040c68: 00 f0 42 77: entsp (lu6)     0x2
             0x00040c6c: 00 f0 24 d7: bl (lu10)       -0x324 <_DoSyscall>
             0x00040c70: c4 8e:       not (2r)        r1, r0
             0x00040c72: 57 aa:       shr (2rus)      r1, r1, 0x7
             0x00040c74: 41 78:       bf (ru6)        r1, 0x1 <.label110>
             0x00040c76: c2 77:       retsp (u6)      0x2
.label110    0x00040c78: c4 96:       neg (2r)        r1, r0
             0x00040c7a: 41 54:       stw (ru6)       r1, sp[0x1]
             0x00040c7c: 00 f0 04 d6: bl (lu10)       -0x204 <__errno>
             0x00040c80: 41 5c:       ldw (ru6)       r1, sp[0x1]
             0x00040c82: 10 00:       stw (2rus)      r1, r0[0x0]
             0x00040c84: d0 a6:       mkmsk (rus)     r0, 0x20
             0x00040c86: c2 77:       retsp (u6)      0x2

Disassembly of section .init (size: 28)

<_init>:
.label2      0x00040c88: 00 f0 42 77: entsp (lu6)     0x2
             0x00040c8c: 00 f0 10 d7: bl (lu10)       -0x310 <.label111>
             0x00040c90: 00 f0 0e 6d: ldw (lru6)      r4, cp[0xe]
             0x00040c94: 06 79:       bf (ru6)        r4, 0x6 <do_ctors_end>
             0x00040c96: 00 f0 48 6d: ldw (lru6)      r5, cp[0x8]

<do_ctors_loop>:
             0x00040c9a: 01 99:       sub (2rus)      r4, r4, 0x1
             0x00040c9c: 04 4b:       ldw (3r)        r0, r5[r4]
             0x00040c9e: e0 27:       bla (1r)        r0
             0x00040ca0: 04 75:       bt (ru6)        r4, -0x4 <do_ctors_loop>

<do_ctors_end>:
             0x00040ca2: c2 77:       retsp (u6)      0x2

Disassembly of section .fini (size: 48)

<_fini>:
.label53     0x00040ca4: 00 f0 42 77: entsp (lu6)     0x2
             0x00040ca8: 84 77:       extsp (u6)      0x4
             0x00040caa: 01 55:       stw (ru6)       r4, sp[0x1]
             0x00040cac: 42 55:       stw (ru6)       r5, sp[0x2]
             0x00040cae: 83 55:       stw (ru6)       r6, sp[0x3]
             0x00040cb0: 00 f0 8d 6d: ldw (lru6)      r6, cp[0xd]
             0x00040cb4: 88 79:       bf (ru6)        r6, 0x8 <do_dtors_end>
             0x00040cb6: 00 69:       ldc (ru6)       r4, 0x0
             0x00040cb8: 00 f0 49 6d: ldw (lru6)      r5, cp[0x9]

<do_dtors_loop>:
             0x00040cbc: 04 4b:       ldw (3r)        r0, r5[r4]
             0x00040cbe: e0 27:       bla (1r)        r0
             0x00040cc0: 01 91:       add (2rus)      r4, r4, 0x1
             0x00040cc2: b2 cb:       lsu (3r)        r11, r4, r6
             0x00040cc4: c5 76:       bt (ru6)        r11, -0x5 <do_dtors_loop>

<do_dtors_end>:
             0x00040cc6: 00 f0 6f d7: bl (lu10)       -0x36f <.label112>
             0x00040cca: 01 5d:       ldw (ru6)       r4, sp[0x1]
             0x00040ccc: 42 5d:       ldw (ru6)       r5, sp[0x2]
             0x00040cce: 83 5d:       ldw (ru6)       r6, sp[0x3]
             0x00040cd0: 84 67:       ldaw (ru6)      sp, sp[0x4]
             0x00040cd2: c2 77:       retsp (u6)      0x2

Disassembly of section .eh_frame (size: 16)

             0x00040cd4: 0c 00 00 00: 
             0x00040cd8: 00 00 00 00: 
             0x00040cdc: 01 00 01 01: 
             0x00040ce0: 0f 0c 0e 00: 

Disassembly of section .cp.rodata (size: 24)

<_cp>:
<tiles_to_wake>:
.label5      0x00040ce4: 02 1e 01 00: 

<chanends_to_setup>:
             0x00040ce8: 00 00 01 00: 
             0x00040cec: ff 00 00 00: 
             0x00040cf0: 70 17 f0 ff: 
             0x00040cf4: 30 18 f0 ff: 

<tile>:
             0x00040cf8: 00 00 01 00: 

Disassembly of section .cp.const4 (size: 40)

<initial_dp>:
             0x00040cfc: 58 0d 04 00: 

<dp_bss_large_start>:
             0x00040d00: 10 0f 04 00: 

<ctor_list_ptr>:
             0x00040d04: 40 0d 04 00: 

<dtor_list_ptr>:
             0x00040d08: 28 0d 04 00: 

<initial_sp>:
             0x00040d0c: 78 ff 07 00: 

<dp_bss_size>:
             0x00040d10: 60 01 00 00: 

<dp_bss_large_size>:
             0x00040d14: 00 00 00 00: 

<dtors_size>:
             0x00040d18: 06 00 00 00: 

<ctors_size>:
             0x00040d1c: 06 00 00 00: 
             0x00040d20: 02 1e 01 00: 

Disassembly of section .cp.rodata.cst4 (size: 4)

             0x00040d24: ff ff ff 7f: 

Disassembly of section .dtors (size: 24)

<_DTOR_LIST_>:
             0x00040d28: f4 03 04 00: 
             0x00040d2c: 24 04 04 00: 
             0x00040d30: 54 04 04 00: 
             0x00040d34: 84 04 04 00: 
             0x00040d38: b4 04 04 00: 
             0x00040d3c: e4 04 04 00: 

Disassembly of section .ctors (size: 24)

<_CTOR_LIST_>:
             0x00040d40: d8 03 04 00: 
             0x00040d44: 08 04 04 00: 
             0x00040d48: 38 04 04 00: 
             0x00040d4c: 68 04 04 00: 
             0x00040d50: 98 04 04 00: 
             0x00040d54: c8 04 04 00: 

Disassembly of section .dp.data (size: 32)

<_dp>:
<camSYNC>:
<cam2DATA>:
<cam1DATA>:
<cam2SDA>:
<cam2SCL>:
<cam2PCLK>:
<cam2XCLK>:
<cam1SDA>:
<cam1SCL>:
<cam1PCLK>:
<cam1XCLK>:
<camRESET>:
<pclk2CLK>:
<pclk1CLK>:
<sccb2CLK>:
<sccb1CLK>:
<camCLK>:
<camSFIN>:
<__timers>:
             0x00040d58: 01 00 00 00: 
             0x00040d5c: 00 00 00 00: 
             0x00040d60: 00 00 00 00: 
             0x00040d64: 00 00 00 00: 
             0x00040d68: 00 00 00 00: 
             0x00040d6c: 00 00 00 00: 
             0x00040d70: 00 00 00 00: 
             0x00040d74: 00 00 00 00: 

Disassembly of section .dp.data.4 (size: 28)

<__stdin>:
             0x00040d78: d0 0d 04 00: 

<__stdout>:
             0x00040d7c: 2c 0e 04 00: 

<__stderr>:
             0x00040d80: 88 0e 04 00: 

<__sfp_lock>:
             0x00040d84: ff ff ff ff: 
             0x00040d88: 00 00 00 00: 

<__sinit_lock>:
             0x00040d8c: ff ff ff ff: 
             0x00040d90: 00 00 00 00: 

Disassembly of section .dp.rodata.4 (size: 24)

<IOPortOut1>:
             0x00040d94: 00 05 04 00: 

<IOPortIn1>:
             0x00040d98: 00 04 04 00: 

<X_TX>:
             0x00040d9c: 00 0c 01 00: 

<X_RX>:
             0x00040da0: 00 0d 01 00: 

<LED_SDI>:
             0x00040da4: 00 08 01 00: 

<BAT_STATUS>:
             0x00040da8: 00 0b 01 00: 

Loadable 2 for  (node "", tile 1):

Disassembly of section .text (size: 8520)

<_start>:
             0x00040000: 00 f0 40 77: entsp (lu6)     0x0
             0x00040004: 4b 68:       ldc (ru6)       r1, 0xb
             0x00040006: d1 fe ec 17: get (l2r)       r0, ps[r1]
             0x0004000a: 04 f0 8b 68: ldc (lru6)      r2, 0x10b
             0x0004000e: c2 fe ec 1f: set (lr2r)      ps[r2], r0
             0x00040012: c3 86:       getr (rus)      r0, 0x3
             0x00040014: 79 d8:       ldap (u10)      r11, 0x79 <_InitChildThread>
             0x00040016: 02 73:       bu (u6)         0x2 <.label0>
.label1      0x00040018: 5d ff ec 07: init (l2r)      t[r1]:pc, r11
.label0      0x0004001c: d4 06:       getst (2r)      r1, res[r0]
             0x0004001e: 44 74:       bt (ru6)        r1, -0x4 <.label1>
             0x00040020: f0 1f:       msync (1r)      res[r0]
             0x00040022: 74 d0:       bl (u10)        0x74 <_SetupThread>
             0x00040024: 00 f0 b1 6f: ldw (lru6)      sp, cp[0x31]
             0x00040028: f0 17:       mjoin (1r)      res[r0]
             0x0004002a: e0 17:       freer (1r)      res[r0]
             0x0004002c: 00 f0 2c 60: ldaw (lru6)     r0, dp[0x2c]
             0x00040030: 40 68:       ldc (ru6)       r1, 0x0
             0x00040032: 00 f0 b2 6c: ldw (lru6)      r2, cp[0x32]
             0x00040036: 02 f0 2f d0: bl (lu10)       0x82f <memset>
             0x0004003a: 00 f0 2e 6c: ldw (lru6)      r0, cp[0x2e]
             0x0004003e: 40 68:       ldc (ru6)       r1, 0x0
             0x00040040: 00 f0 b3 6c: ldw (lru6)      r2, cp[0x33]
             0x00040044: 02 f0 28 d0: bl (lu10)       0x828 <memset>
             0x00040048: 02 f0 2a d0: bl (lu10)       0x82a <__init_threadlocal_timer>
             0x0004004c: 04 f0 7c d0: bl (lu10)       0x107c <.label2>
             0x00040050: 00 f0 c6 6a: ldc (lru6)      r11, 0x6
             0x00040054: c8 ea:       setc (ru6)      res[r11], 0x8
             0x00040056: cf ea:       setc (ru6)      res[r11], 0xf
             0x00040058: 00 68:       ldc (ru6)       r0, 0x0
             0x0004005a: 01 54:       stw (ru6)       r0, sp[0x1]
             0x0004005c: 00 f0 40 68: ldc (lru6)      r1, 0x0
             0x00040060: 48 78:       bf (ru6)        r1, 0x8 <.label3>
             0x00040062: 01 64:       ldaw (ru6)      r0, sp[0x1]
             0x00040064: 01 f0 f2 d3: bl (lu10)       0x7f2 <_get_cmdline>
             0x00040068: b0 f8 ec 97: ashr (l2rus)    r11, r0, 0x20
             0x0004006c: c2 7a:       bf (ru6)        r11, 0x2 <.label3>
             0x0004006e: 01 90:       add (2rus)      r0, r0, 0x1
             0x00040070: f0 4f:       ecallt (1r)     r0
.label3      0x00040072: 41 64:       ldaw (ru6)      r1, sp[0x1]
             0x00040074: 01 f0 bb d3: bl (lu10)       0x7bb <main>
             0x00040078: 02 70:       bt (ru6)        r0, 0x2 <.label4>
             0x0004007a: 01 f0 ef d3: bl (lu10)       0x7ef <__libc_done>
.label4      0x0004007e: 01 f0 f9 d3: bl (lu10)       0x7f9 <_exit_unlocked>
             0x00040082: ff 17:       nop (0r)        
             0x00040084: ff 17:       nop (0r)        
             0x00040086: ff 17:       nop (0r)        
             0x00040088: ff 17:       nop (0r)        
             0x0004008a: ff 17:       nop (0r)        
             0x0004008c: ff 17:       nop (0r)        
             0x0004008e: ff 17:       nop (0r)        
             0x00040090: ff 17:       nop (0r)        
             0x00040092: ff 17:       nop (0r)        
             0x00040094: ff 17:       nop (0r)        
             0x00040096: ff 17:       nop (0r)        
             0x00040098: ff 17:       nop (0r)        
             0x0004009a: ff 17:       nop (0r)        
             0x0004009c: ff 17:       nop (0r)        
             0x0004009e: ff 17:       nop (0r)        
             0x000400a0: ff 17:       nop (0r)        
             0x000400a2: ff 17:       nop (0r)        
             0x000400a4: ff 17:       nop (0r)        
             0x000400a6: ff 17:       nop (0r)        
             0x000400a8: ff 17:       nop (0r)        
             0x000400aa: ff 17:       nop (0r)        
             0x000400ac: ff 17:       nop (0r)        
             0x000400ae: ff 17:       nop (0r)        
             0x000400b0: ff 17:       nop (0r)        
             0x000400b2: ff 17:       nop (0r)        
             0x000400b4: ff 17:       nop (0r)        
             0x000400b6: ff 17:       nop (0r)        
             0x000400b8: ff 17:       nop (0r)        
             0x000400ba: ff 17:       nop (0r)        
             0x000400bc: ff 17:       nop (0r)        
             0x000400be: ff 17:       nop (0r)        
             0x000400c0: ff 17:       nop (0r)        
             0x000400c2: ff 17:       nop (0r)        
             0x000400c4: ff 17:       nop (0r)        
             0x000400c6: ff 17:       nop (0r)        
             0x000400c8: ff 17:       nop (0r)        
             0x000400ca: ff 17:       nop (0r)        
             0x000400cc: ff 17:       nop (0r)        
             0x000400ce: ff 17:       nop (0r)        
             0x000400d0: ff 17:       nop (0r)        
             0x000400d2: ff 17:       nop (0r)        
             0x000400d4: ff 17:       nop (0r)        
             0x000400d6: ff 17:       nop (0r)        
             0x000400d8: ff 17:       nop (0r)        
             0x000400da: ff 17:       nop (0r)        
             0x000400dc: ff 17:       nop (0r)        
             0x000400de: ff 17:       nop (0r)        
             0x000400e0: ff 17:       nop (0r)        
             0x000400e2: ff 17:       nop (0r)        
             0x000400e4: ff 17:       nop (0r)        
             0x000400e6: ff 17:       nop (0r)        
             0x000400e8: ff 17:       nop (0r)        
             0x000400ea: ff 17:       nop (0r)        
             0x000400ec: ff 17:       nop (0r)        
             0x000400ee: ff 17:       nop (0r)        
             0x000400f0: ff 17:       nop (0r)        
             0x000400f2: ff 17:       nop (0r)        
             0x000400f4: ff 17:       nop (0r)        
             0x000400f6: ff 17:       nop (0r)        
             0x000400f8: ff 17:       nop (0r)        
             0x000400fa: ff 17:       nop (0r)        
             0x000400fc: ff 17:       nop (0r)        
             0x000400fe: ff 17:       nop (0r)        

<_TrapHandler>:
             0x00040100: 00 f0 40 77: entsp (lu6)     0x0
             0x00040104: 01 f0 c4 d3: bl (lu10)       0x7c4 <_DoException>

<_InitChildThread>:
             0x00040108: 01 d0:       bl (u10)        0x1 <_SetupThread>
             0x0004010a: ee 07:       ssync (0r)      

<_SetupThread>:
             0x0004010c: 07 dc:       ldap (u10)      r11, -0x7 <_TrapHandler>
             0x0004010e: ff 07:       set (0r)        kep, r11
             0x00040110: 04 f0 52 d8: ldap (lu10)     r11, 0x1052 <.label5>
             0x00040114: fb 37:       set (1r)        cp, r11
             0x00040116: 00 f0 6d 6f: ldw (lru6)      dp, cp[0x2d]
             0x0004011a: c0 6a:       ldc (ru6)       r11, 0x0
             0x0004011c: fb 2f:       set (1r)        sp, r11
             0x0004011e: c0 77:       retsp (u6)      0x0

<__register_frame_info_bases>:
             0x00040120: c0 77:       retsp (u6)      0x0
             0x00040122: 00 00:       stw (2rus)      r0, r0[0x0]

<Tile1>:
             0x00040124: ff 17:       nop (0r)        
             0x00040126: 84 7f:       dualentsp (u6)  0x4
             0x00040128: 40 90:       add (2rus)      r4, r0, 0x0
             0x0004012a: 02 55:       stw (ru6)       r4, sp[0x2]
             0x0004012c: 00 f0 79 7f: ldaw (lu6)      r11, cp[0x39]
             0x00040130: 8c 91:       add (2rus)      r0, r11, 0x0
             0x00040132: ff 17:       nop (0r)        
             0x00040134: 00 f0 ee d3: bl (lu10)       0x3ee <puts>
             0x00040138: 00 f0 08 d0: bl (lu10)       0x8 <initCams>
             0x0004013c: 00 f0 58 d0: bl (lu10)       0x58 <configureCams>
             0x00040140: c0 90:       add (2rus)      r0, r4, 0x0
             0x00040142: ff 17:       nop (0r)        
             0x00040144: 00 f0 8b d0: bl (lu10)       0x8b <launchCameras>
             0x00040148: ff 17:       nop (0r)        
             0x0004014a: 02 5d:       ldw (ru6)       r4, sp[0x2]
             0x0004014c: ff 17:       nop (0r)        
             0x0004014e: c4 77:       retsp (u6)      0x4

<__main__main_tile_1>:
             0x00040150: ff 17:       nop (0r)        
             0x00040152: 82 7f:       dualentsp (u6)  0x2
             0x00040154: 00 f0 0d d4: bl (lu10)       -0xd <Tile1>
             0x00040158: ff 17:       nop (0r)        
             0x0004015a: c2 77:       retsp (u6)      0x2

<initCams>:
             0x0004015c: ff 17:       nop (0r)        
             0x0004015e: 8a 7f:       dualentsp (u6)  0xa
             0x00040160: 05 f9 ec f7: std (l2rus)     r5, r4, sp[0x1]
             0x00040164: 2e f9 ec f7: std (l2rus)     r7, r6, sp[0x2]
             0x00040168: 07 fa ec f7: std (l2rus)     r9, r8, sp[0x3]
             0x0004016c: ff 17:       nop (0r)        
             0x0004016e: 88 56:       stw (ru6)       r10, sp[0x8]
             0x00040170: 00 f0 19 59: ldw (lru6)      r4, dp[0x19]
             0x00040174: 01 f0 64 68: ldc (lru6)      r1, 0x64
             0x00040178: 88 68:       ldc (ru6)       r2, 0x8
             0x0004017a: c0 90:       add (2rus)      r0, r4, 0x0
             0x0004017c: 01 f0 0c d0: bl (lu10)       0x40c <configure_clock_rate>
             0x00040180: 00 f0 21 58: ldw (lru6)      r0, dp[0x21]
             0x00040184: d0 90:       add (2rus)      r1, r4, 0x0
             0x00040186: ff 17:       nop (0r)        
             0x00040188: 01 f0 01 d0: bl (lu10)       0x401 <configure_port_clock_output>
             0x0004018c: 00 f0 26 58: ldw (lru6)      r0, dp[0x26]
             0x00040190: d0 90:       add (2rus)      r1, r4, 0x0
             0x00040192: ff 17:       nop (0r)        
             0x00040194: 00 f0 fe d3: bl (lu10)       0x3fe <configure_port_clock_output>
             0x00040198: 0f e9:       setc (ru6)      res[r4], 0xf
             0x0004019a: ff 17:       nop (0r)        
             0x0004019c: 00 f0 1c 59: ldw (lru6)      r4, dp[0x1c]
             0x000401a0: 00 f0 62 58: ldw (lru6)      r1, dp[0x22]
             0x000401a4: c0 90:       add (2rus)      r0, r4, 0x0
             0x000401a6: ff 17:       nop (0r)        
             0x000401a8: 00 f0 fd d3: bl (lu10)       0x3fd <configure_clock_src>
             0x000401ac: 00 f0 25 58: ldw (lru6)      r0, dp[0x25]
             0x000401b0: d0 90:       add (2rus)      r1, r4, 0x0
             0x000401b2: ff 17:       nop (0r)        
             0x000401b4: 00 f0 ed d3: bl (lu10)       0x3ed <configure_in_port>
             0x000401b8: 00 f0 2a 58: ldw (lru6)      r0, dp[0x2a]
             0x000401bc: d0 90:       add (2rus)      r1, r4, 0x0
             0x000401be: ff 17:       nop (0r)        
             0x000401c0: 00 f0 ea d3: bl (lu10)       0x3ea <configure_in_port>
             0x000401c4: 00 f0 20 58: ldw (lru6)      r0, dp[0x20]
             0x000401c8: d0 90:       add (2rus)      r1, r4, 0x0
             0x000401ca: ff 17:       nop (0r)        
             0x000401cc: 00 f0 e7 d3: bl (lu10)       0x3e7 <configure_in_port>
             0x000401d0: 0f e9:       setc (ru6)      res[r4], 0xf
             0x000401d2: ff 17:       nop (0r)        
             0x000401d4: 00 f0 1d 59: ldw (lru6)      r4, dp[0x1d]
             0x000401d8: 00 f0 67 58: ldw (lru6)      r1, dp[0x27]
             0x000401dc: c0 90:       add (2rus)      r0, r4, 0x0
             0x000401de: ff 17:       nop (0r)        
             0x000401e0: 00 f0 ef d3: bl (lu10)       0x3ef <configure_clock_src>
             0x000401e4: 0f e9:       setc (ru6)      res[r4], 0xf
             0x000401e6: ff 17:       nop (0r)        
             0x000401e8: 00 f0 1e 58: ldw (lru6)      r0, dp[0x1e]
             0x000401ec: d5 a6:       mkmsk (rus)     r1, 0x1
             0x000401ee: ff 17:       nop (0r)        
             0x000401f0: c4 ae:       out (r2r)       res[r0], r1
             0x000401f2: ff 17:       nop (0r)        
             0x000401f4: 00 f0 a4 59: ldw (lru6)      r6, dp[0x24]
             0x000401f8: 00 f0 e3 59: ldw (lru6)      r7, dp[0x23]
             0x000401fc: 00 f0 9a 58: ldw (lru6)      r2, dp[0x1a]
             0x00040200: c8 90:       add (2rus)      r0, r6, 0x0
             0x00040202: dc 90:       add (2rus)      r1, r7, 0x0
             0x00040204: 00 f0 2d d1: bl (lu10)       0x12d <sccb_init>
             0x00040208: 00 f0 29 59: ldw (lru6)      r4, dp[0x29]
             0x0004020c: 00 f0 68 59: ldw (lru6)      r5, dp[0x28]
             0x00040210: 00 f0 9b 58: ldw (lru6)      r2, dp[0x1b]
             0x00040214: c0 90:       add (2rus)      r0, r4, 0x0
             0x00040216: d4 90:       add (2rus)      r1, r5, 0x0
             0x00040218: 00 f0 28 d1: bl (lu10)       0x128 <sccb_init>
             0x0004021c: 00 68:       ldc (ru6)       r0, 0x0
             0x0004021e: dc 90:       add (2rus)      r1, r7, 0x0
             0x00040220: e8 90:       add (2rus)      r2, r6, 0x0
             0x00040222: ff 17:       nop (0r)        
             0x00040224: 00 f0 5e d1: bl (lu10)       0x15e <_Ssccb_rd_0>
             0x00040228: 0a 6a:       ldc (ru6)       r8, 0xa
             0x0004022a: ff 17:       nop (0r)        
             0x0004022c: 80 91:       add (2rus)      r0, r8, 0x0
             0x0004022e: dc 90:       add (2rus)      r1, r7, 0x0
             0x00040230: e8 90:       add (2rus)      r2, r6, 0x0
             0x00040232: ff 17:       nop (0r)        
             0x00040234: 00 f0 5a d1: bl (lu10)       0x15a <_Ssccb_rd_0>
             0x00040238: 90 90:       add (2rus)      r9, r0, 0x0
             0x0004023a: 8b 6a:       ldc (ru6)       r10, 0xb
             0x0004023c: 88 91:       add (2rus)      r0, r10, 0x0
             0x0004023e: dc 90:       add (2rus)      r1, r7, 0x0
             0x00040240: e8 90:       add (2rus)      r2, r6, 0x0
             0x00040242: ff 17:       nop (0r)        
             0x00040244: 00 f0 56 d1: bl (lu10)       0x156 <_Ssccb_rd_0>
             0x00040248: 60 90:       add (2rus)      r6, r0, 0x0
             0x0004024a: 80 91:       add (2rus)      r0, r8, 0x0
             0x0004024c: d4 90:       add (2rus)      r1, r5, 0x0
             0x0004024e: e0 90:       add (2rus)      r2, r4, 0x0
             0x00040250: 00 f0 53 d1: bl (lu10)       0x153 <_Ssccb_rd_0>
             0x00040254: 70 90:       add (2rus)      r7, r0, 0x0
             0x00040256: 88 91:       add (2rus)      r0, r10, 0x0
             0x00040258: d4 90:       add (2rus)      r1, r5, 0x0
             0x0004025a: e0 90:       add (2rus)      r2, r4, 0x0
             0x0004025c: 00 f0 50 d1: bl (lu10)       0x150 <_Ssccb_rd_0>
             0x00040260: 10 90:       add (2rus)      r1, r0, 0x0
             0x00040262: ff 17:       nop (0r)        
             0x00040264: 01 f0 b7 68: ldc (lru6)      r2, 0x77
             0x00040268: 86 31:       eq (3r)         r0, r9, r2
             0x0004026a: ff 17:       nop (0r)        
             0x0004026c: 01 f0 c0 68: ldc (lru6)      r3, 0x40
             0x00040270: 7b 31:       eq (3r)         r11, r6, r3
             0x00040272: ff 17:       nop (0r)        
             0x00040274: 83 3c:       and (3r)        r0, r0, r11
             0x00040276: ee 30:       eq (3r)         r2, r7, r2
             0x00040278: 17 30:       eq (3r)         r1, r1, r3
             0x0004027a: ff 17:       nop (0r)        
             0x0004027c: 19 38:       and (3r)        r1, r2, r1
             0x0004027e: ff 17:       nop (0r)        
             0x00040280: 00 f0 42 78: bf (lru6)       r1, 0x2 <.label6>
             0x00040284: 42 68:       ldc (ru6)       r1, 0x2
             0x00040286: ff 17:       nop (0r)        
             0x00040288: 01 40:       or (3r)         r0, r0, r1
             0x0004028a: ff 17:       nop (0r)        
.label6      0x0004028c: ff 17:       nop (0r)        
             0x0004028e: 88 5e:       ldw (ru6)       r10, sp[0x8]
             0x00040290: 07 fa ec ef: ldd (l2rus)     r9, r8, sp[0x3]
             0x00040294: 2e f9 ec ef: ldd (l2rus)     r7, r6, sp[0x2]
             0x00040298: 05 f9 ec ef: ldd (l2rus)     r5, r4, sp[0x1]
             0x0004029c: ff 17:       nop (0r)        
             0x0004029e: ca 77:       retsp (u6)      0xa

<configureCams>:
             0x000402a0: ff 17:       nop (0r)        
             0x000402a2: 8a 7f:       dualentsp (u6)  0xa
             0x000402a4: 05 f9 ec f7: std (l2rus)     r5, r4, sp[0x1]
             0x000402a8: 2e f9 ec f7: std (l2rus)     r7, r6, sp[0x2]
             0x000402ac: 07 fa ec f7: std (l2rus)     r9, r8, sp[0x3]
             0x000402b0: ff 17:       nop (0r)        
             0x000402b2: 88 56:       stw (ru6)       r10, sp[0x8]
             0x000402b4: 00 f0 a3 58: ldw (lru6)      r2, dp[0x23]
             0x000402b8: 00 f0 e4 58: ldw (lru6)      r3, dp[0x24]
             0x000402bc: 12 6a:       ldc (ru6)       r8, 0x12
             0x000402be: ff 17:       nop (0r)        
             0x000402c0: 02 f0 40 6a: ldc (lru6)      r9, 0x80
             0x000402c4: 80 91:       add (2rus)      r0, r8, 0x0
             0x000402c6: 94 91:       add (2rus)      r1, r9, 0x0
             0x000402c8: 00 f0 03 d1: bl (lu10)       0x103 <_Ssccb_wr_0>
             0x000402cc: 00 f0 a8 58: ldw (lru6)      r2, dp[0x28]
             0x000402d0: 00 f0 e9 58: ldw (lru6)      r3, dp[0x29]
             0x000402d4: 80 91:       add (2rus)      r0, r8, 0x0
             0x000402d6: 94 91:       add (2rus)      r1, r9, 0x0
             0x000402d8: 68 90:       add (2rus)      r6, r2, 0x0
             0x000402da: 7c 90:       add (2rus)      r7, r3, 0x0
             0x000402dc: 00 f0 fe d0: bl (lu10)       0xfe <_Ssccb_wr_0>
             0x000402e0: e0 8f:       gettime (1r)    r0
             0x000402e2: ee 17:       get (0r)        r11, id
             0x000402e4: 00 f0 40 60: ldaw (lru6)     r1, dp[0x0]
             0x000402e8: ff 17:       nop (0r)        
             0x000402ea: 97 4c:       ldw (3r)        r1, r1[r11]
             0x000402ec: ff 17:       nop (0r)        
             0x000402ee: 41 54:       stw (ru6)       r1, sp[0x1]
             0x000402f0: 01 f0 83 6c: ldw (lru6)      r2, cp[0x43]
             0x000402f4: 02 10:       add (3r)        r0, r0, r2
             0x000402f6: ff 17:       nop (0r)        
             0x000402f8: d1 16:       setd (r2r)      res[r1], r0
             0x000402fa: ff 17:       nop (0r)        
             0x000402fc: 49 e8:       setc (ru6)      res[r1], 0x9
             0x000402fe: ff 17:       nop (0r)        
             0x00040300: c1 b6:       in (2r)         r0, res[r1]
             0x00040302: ff 17:       nop (0r)        
             0x00040304: 00 68:       ldc (ru6)       r0, 0x0
             0x00040306: ff 17:       nop (0r)        
             0x00040308: 00 f0 45 7f: ldaw (lu6)      r11, cp[0x5]
             0x0004030c: 0c 92:       add (2rus)      r8, r11, 0x0
             0x0004030e: 40 90:       add (2rus)      r4, r0, 0x0
             0x00040310: 50 90:       add (2rus)      r5, r0, 0x0
             0x00040312: ff 17:       nop (0r)        
.label7      0x00040314: d1 a6:       mkmsk (rus)     r0, 0x1
             0x00040316: 51 8c:       ld8u (3r)       r9, r8[r5]
             0x00040318: 84 91:       add (2rus)      r0, r9, 0x0
             0x0004031a: 20 8a:       ld8u (3r)       r10, r8[r0]
             0x0004031c: 98 91:       add (2rus)      r1, r10, 0x0
             0x0004031e: ff 17:       nop (0r)        
             0x00040320: 00 f0 a3 58: ldw (lru6)      r2, dp[0x23]
             0x00040324: 00 f0 e4 58: ldw (lru6)      r3, dp[0x24]
             0x00040328: 00 f0 eb d0: bl (lu10)       0xeb <_Ssccb_wr_0>
             0x0004032c: 84 91:       add (2rus)      r0, r9, 0x0
             0x0004032e: 98 91:       add (2rus)      r1, r10, 0x0
             0x00040330: e8 90:       add (2rus)      r2, r6, 0x0
             0x00040332: fc 90:       add (2rus)      r3, r7, 0x0
             0x00040334: 00 f0 e8 d0: bl (lu10)       0xe8 <_Ssccb_wr_0>
             0x00040338: 01 91:       add (2rus)      r4, r4, 0x1
             0x0004033a: 02 92:       add (2rus)      r8, r8, 0x2
             0x0004033c: 01 f0 0f 68: ldc (lru6)      r0, 0x4f
             0x00040340: c0 c8:       lsu (3r)        r0, r4, r0
             0x00040342: ff 17:       nop (0r)        
             0x00040344: 00 f0 0d 74: bt (lru6)       r0, -0xd <.label7>
             0x00040348: e0 8f:       gettime (1r)    r0
             0x0004034a: ff 17:       nop (0r)        
             0x0004034c: 01 f0 43 6c: ldw (lru6)      r1, cp[0x43]
             0x00040350: 01 10:       add (3r)        r0, r0, r1
             0x00040352: 41 5c:       ldw (ru6)       r1, sp[0x1]
             0x00040354: d1 16:       setd (r2r)      res[r1], r0
             0x00040356: ff 17:       nop (0r)        
             0x00040358: 49 e8:       setc (ru6)      res[r1], 0x9
             0x0004035a: ff 17:       nop (0r)        
             0x0004035c: c1 b6:       in (2r)         r0, res[r1]
             0x0004035e: ff 17:       nop (0r)        
             0x00040360: d1 a6:       mkmsk (rus)     r0, 0x1
             0x00040362: 88 5e:       ldw (ru6)       r10, sp[0x8]
             0x00040364: 07 fa ec ef: ldd (l2rus)     r9, r8, sp[0x3]
             0x00040368: 2e f9 ec ef: ldd (l2rus)     r7, r6, sp[0x2]
             0x0004036c: 05 f9 ec ef: ldd (l2rus)     r5, r4, sp[0x1]
             0x00040370: ff 17:       nop (0r)        
             0x00040372: ca 77:       retsp (u6)      0xa

<launchCameras>:
             0x00040374: ff 17:       nop (0r)        
             0x00040376: 86 7f:       dualentsp (u6)  0x6
             0x00040378: c2 86:       getr (rus)      r0, 0x2
             0x0004037a: 01 54:       stw (ru6)       r0, sp[0x1]
             0x0004037c: c6 86:       getr (rus)      r1, 0x2
             0x0004037e: ff 17:       nop (0r)        
             0x00040380: d4 16:       setd (r2r)      res[r0], r1
             0x00040382: ff 17:       nop (0r)        
             0x00040384: d1 16:       setd (r2r)      res[r1], r0
             0x00040386: 02 54:       stw (ru6)       r0, sp[0x2]
             0x00040388: c2 86:       getr (rus)      r0, 0x2
             0x0004038a: 43 54:       stw (ru6)       r1, sp[0x3]
             0x0004038c: c6 86:       getr (rus)      r1, 0x2
             0x0004038e: ff 17:       nop (0r)        
             0x00040390: d4 16:       setd (r2r)      res[r0], r1
             0x00040392: ff 17:       nop (0r)        
             0x00040394: d1 16:       setd (r2r)      res[r1], r0
             0x00040396: 04 54:       stw (ru6)       r0, sp[0x4]
             0x00040398: ff 17:       nop (0r)        
             0x0004039a: 45 54:       stw (ru6)       r1, sp[0x5]
             0x0004039c: 00 f0 48 60: ldaw (lru6)     r1, dp[0x8]
             0x000403a0: 01 64:       ldaw (ru6)      r0, sp[0x1]
             0x000403a2: ff 17:       nop (0r)        
             0x000403a4: 00 f0 b7 d3: bl (lu10)       0x3b7 <__start_other_cores>
.label8      0x000403a8: 00 f0 01 77: bu (lu6)        -0x1 <.label8>

<_SwaitForVSync_0>:
             0x000403ac: ff 17:       nop (0r)        
             0x000403ae: 80 7f:       dualentsp (u6)  0x0
             0x000403b0: 00 f0 60 58: ldw (lru6)      r1, dp[0x20]
             0x000403b4: 41 e8:       setc (ru6)      res[r1], 0x1
             0x000403b6: ff 17:       nop (0r)        
             0x000403b8: c9 b6:       in (2r)         r2, res[r1]
             0x000403ba: ff 17:       nop (0r)        
             0x000403bc: ed 07:       clre (0r)       
             0x000403be: ff 17:       nop (0r)        
             0x000403c0: f1 07:       eeu (1r)        res[r1]
             0x000403c2: ff 17:       nop (0r)        
             0x000403c4: 59 e8:       setc (ru6)      res[r1], 0x19
             0x000403c6: ff 17:       nop (0r)        
             0x000403c8: 00 f0 04 d8: ldap (lu10)     r11, 0x4 <.label9>
             0x000403cc: f1 47:       setv (1r)       res[r1], r11
             0x000403ce: ff 17:       nop (0r)        
             0x000403d0: 02 f0 c0 68: ldc (lru6)      r3, 0x80
.label10     0x000403d4: d9 16:       setd (r2r)      res[r1], r2
             0x000403d6: ff 17:       nop (0r)        
             0x000403d8: ec 07:       waiteu (0r)     
             0x000403da: ff 17:       nop (0r)        
.label9      0x000403dc: c9 b6:       in (2r)         r2, res[r1]
             0x000403de: ff 17:       nop (0r)        
             0x000403e0: bb 38:       and (3r)        r11, r2, r3
             0x000403e2: ff 17:       nop (0r)        
             0x000403e4: 3c 32:       eq (3r)         r11, r11, r0
             0x000403e6: ff 17:       nop (0r)        
             0x000403e8: 00 f0 c6 7e: bf (lru6)       r11, -0x6 <.label10>
             0x000403ec: ff 17:       nop (0r)        
             0x000403ee: c0 77:       retsp (u6)      0x0

<waitForHREF>:
             0x000403f0: ff 17:       nop (0r)        
             0x000403f2: 80 7f:       dualentsp (u6)  0x0
             0x000403f4: 00 f0 60 58: ldw (lru6)      r1, dp[0x20]
             0x000403f8: 41 e8:       setc (ru6)      res[r1], 0x1
             0x000403fa: ff 17:       nop (0r)        
             0x000403fc: c9 b6:       in (2r)         r2, res[r1]
             0x000403fe: ff 17:       nop (0r)        
             0x00040400: ed 07:       clre (0r)       
             0x00040402: ff 17:       nop (0r)        
             0x00040404: f1 07:       eeu (1r)        res[r1]
             0x00040406: ff 17:       nop (0r)        
             0x00040408: 59 e8:       setc (ru6)      res[r1], 0x19
             0x0004040a: ff 17:       nop (0r)        
             0x0004040c: 00 f0 04 d8: ldap (lu10)     r11, 0x4 <.label11>
             0x00040410: f1 47:       setv (1r)       res[r1], r11
             0x00040412: ff 17:       nop (0r)        
             0x00040414: 01 f0 c0 68: ldc (lru6)      r3, 0x40
.label12     0x00040418: d9 16:       setd (r2r)      res[r1], r2
             0x0004041a: ff 17:       nop (0r)        
             0x0004041c: ec 07:       waiteu (0r)     
             0x0004041e: ff 17:       nop (0r)        
.label11     0x00040420: c1 3e:       getts (2r)      r0, res[r1]
             0x00040422: ff 17:       nop (0r)        
             0x00040424: c9 b6:       in (2r)         r2, res[r1]
             0x00040426: ff 17:       nop (0r)        
             0x00040428: bb 38:       and (3r)        r11, r2, r3
             0x0004042a: ff 17:       nop (0r)        
             0x0004042c: 00 f0 c6 7e: bf (lru6)       r11, -0x6 <.label12>
             0x00040430: ff 17:       nop (0r)        
             0x00040432: c0 77:       retsp (u6)      0x0

<gatherDataThread>:
             0x00040434: 01 f0 9a 7f: dualentsp (lu6) 0x5a
             0x00040438: 01 f0 12 55: stw (lru6)      r4, sp[0x52]
             0x0004043c: 01 f0 53 55: stw (lru6)      r5, sp[0x53]
             0x00040440: 01 f0 94 55: stw (lru6)      r6, sp[0x54]
             0x00040444: 01 f0 d5 55: stw (lru6)      r7, sp[0x55]
             0x00040448: 01 f0 16 56: stw (lru6)      r8, sp[0x56]
             0x0004044c: 01 f0 57 56: stw (lru6)      r9, sp[0x57]
             0x00040450: 01 f0 98 56: stw (lru6)      r10, sp[0x58]
             0x00040454: 50 90:       add (2rus)      r5, r0, 0x0
             0x00040456: 41 54:       stw (ru6)       r1, sp[0x1]
             0x00040458: 00 6a:       ldc (ru6)       r8, 0x0
             0x0004045a: 82 65:       ldaw (ru6)      r6, sp[0x2]
             0x0004045c: 55 a7:       mkmsk (rus)     r9, 0x1
             0x0004045e: c5 69:       ldc (ru6)       r7, 0x5
             0x00040460: 00 f0 07 73: bu (lu6)        0x7 <.label13>
.label15     0x00040464: c8 90:       add (2rus)      r0, r6, 0x0
             0x00040466: fc 90:       add (2rus)      r3, r7, 0x0
             0x00040468: 00 f0 b4 d1: bl (lu10)       0x1b4 <computeOV7670Data>
             0x0004046c: 15 4f:       outct (rus)     res[r5], 0x1
             0x0004046e: ff 17:       nop (0r)        
             0x00040470: 15 cf:       chkct (rus)     res[r5], 0x1
             0x00040472: ff 17:       nop (0r)        
             0x00040474: e1 ae:       out (r2r)       res[r5], r8
             0x00040476: ff 17:       nop (0r)        
             0x00040478: 15 4f:       outct (rus)     res[r5], 0x1
             0x0004047a: ff 17:       nop (0r)        
             0x0004047c: 15 cf:       chkct (rus)     res[r5], 0x1
             0x0004047e: ff 17:       nop (0r)        
.label13     0x00040480: 15 cf:       chkct (rus)     res[r5], 0x1
             0x00040482: ff 17:       nop (0r)        
             0x00040484: 15 4f:       outct (rus)     res[r5], 0x1
             0x00040486: ff 17:       nop (0r)        
             0x00040488: 85 b7:       in (2r)         r1, res[r5]
             0x0004048a: ff 17:       nop (0r)        
             0x0004048c: 15 cf:       chkct (rus)     res[r5], 0x1
             0x0004048e: ff 17:       nop (0r)        
             0x00040490: 15 4f:       outct (rus)     res[r5], 0x1
             0x00040492: ff 17:       nop (0r)        
             0x00040494: 15 cf:       chkct (rus)     res[r5], 0x1
             0x00040496: ff 17:       nop (0r)        
             0x00040498: 15 4f:       outct (rus)     res[r5], 0x1
             0x0004049a: ff 17:       nop (0r)        
             0x0004049c: 89 b7:       in (2r)         r2, res[r5]
             0x0004049e: ff 17:       nop (0r)        
             0x000404a0: 15 cf:       chkct (rus)     res[r5], 0x1
             0x000404a2: ff 17:       nop (0r)        
             0x000404a4: 15 4f:       outct (rus)     res[r5], 0x1
             0x000404a6: ff 17:       nop (0r)        
             0x000404a8: 15 cf:       chkct (rus)     res[r5], 0x1
             0x000404aa: ff 17:       nop (0r)        
             0x000404ac: 15 4f:       outct (rus)     res[r5], 0x1
             0x000404ae: ff 17:       nop (0r)        
             0x000404b0: 8d b7:       in (2r)         r3, res[r5]
             0x000404b2: ff 17:       nop (0r)        
             0x000404b4: 15 cf:       chkct (rus)     res[r5], 0x1
             0x000404b6: ff 17:       nop (0r)        
             0x000404b8: 15 4f:       outct (rus)     res[r5], 0x1
             0x000404ba: 01 5c:       ldw (ru6)       r0, sp[0x1]
             0x000404bc: ff 17:       nop (0r)        
             0x000404be: 00 08:       ldw (2rus)      r0, r0[0x0]
             0x000404c0: 01 e8:       setc (ru6)      res[r0], 0x1
             0x000404c2: ff 17:       nop (0r)        
             0x000404c4: dc 3e:       setpt (r2r)     res[r0], r3
             0x000404c6: ff 17:       nop (0r)        
             0x000404c8: 4c b7:       in (2r)         r11, res[r0]
             0x000404ca: b0 91:       add (2rus)      r3, r8, 0x0
.label14     0x000404cc: ac ae:       shr (2rus)      r10, r11, 0x8
             0x000404ce: 0b 11:       add (3r)        r4, r6, r3
             0x000404d0: 6b f9 ec 8f: st8 (l3r)       r10, r6[r3]
             0x000404d4: 3e 90:       add (2rus)      r3, r3, 0x2
             0x000404d6: be ae:       shr (2rus)      r11, r11, 0x18
             0x000404d8: f1 fd ec 8f: st8 (l3r)       r11, r4[r9]
             0x000404dc: 01 e8:       setc (ru6)      res[r0], 0x1
             0x000404de: ff 17:       nop (0r)        
             0x000404e0: 4c b7:       in (2r)         r11, res[r0]
             0x000404e2: 8e aa:       shr (2rus)      r4, r3, 0x6
             0x000404e4: 43 cb:       lsu (3r)        r4, r4, r7
             0x000404e6: ff 17:       nop (0r)        
             0x000404e8: 00 f0 08 75: bt (lru6)       r4, -0x8 <.label14>
             0x000404ec: 00 f0 23 77: bu (lu6)        -0x23 <.label15>

<ov07740_capture>:
             0x000404f0: ff 17:       nop (0r)        
             0x000404f2: 8e 7f:       dualentsp (u6)  0xe
             0x000404f4: 07 f9 ec f7: std (l2rus)     r5, r4, sp[0x3]
             0x000404f8: 6c fb ec f7: std (l2rus)     r7, r6, sp[0x4]
             0x000404fc: 45 fc ec f7: std (l2rus)     r9, r8, sp[0x5]
             0x00040500: ff 17:       nop (0r)        
             0x00040502: 8c 56:       stw (ru6)       r10, sp[0xc]
             0x00040504: 54 90:       add (2rus)      r5, r1, 0x0
             0x00040506: 85 54:       stw (ru6)       r2, sp[0x5]
             0x00040508: 60 90:       add (2rus)      r6, r0, 0x0
             0x0004050a: ee 17:       get (0r)        r11, id
             0x0004050c: 00 f0 00 60: ldaw (lru6)     r0, dp[0x0]
             0x00040510: ff 17:       nop (0r)        
             0x00040512: 83 4c:       ldw (3r)        r0, r0[r11]
             0x00040514: 00 69:       ldc (ru6)       r4, 0x0
             0x00040516: 04 54:       stw (ru6)       r0, sp[0x4]
             0x00040518: 2f f1 cc 61: ldaw (lru6)     r7, dp[0x4bcc]
             0x0004051c: 00 f0 2c 62: ldaw (lru6)     r8, dp[0x2c]
             0x00040520: 00 f0 03 73: bu (lu6)        0x3 <.label16>
.label20     0x00040524: 00 f0 7e 7f: ldaw (lu6)      r11, cp[0x3e]
             0x00040528: 8c 91:       add (2rus)      r0, r11, 0x0
             0x0004052a: ff 17:       nop (0r)        
             0x0004052c: 00 f0 f0 d2: bl (lu10)       0x2f0 <puts>
.label16     0x00040530: 00 f0 1f 58: ldw (lru6)      r0, dp[0x1f]
             0x00040534: 10 90:       add (2rus)      r1, r0, 0x0
             0x00040536: ff 17:       nop (0r)        
             0x00040538: 01 af:       out (r2r)       res[r1], r4
             0x0004053a: e0 8f:       gettime (1r)    r0
             0x0004053c: 0f f0 a8 68: ldc (lru6)      r2, 0x3e8
             0x00040540: 02 10:       add (3r)        r0, r0, r2
             0x00040542: 84 5c:       ldw (ru6)       r2, sp[0x4]
             0x00040544: d2 16:       setd (r2r)      res[r2], r0
             0x00040546: ff 17:       nop (0r)        
             0x00040548: 89 e8:       setc (ru6)      res[r2], 0x9
             0x0004054a: ff 17:       nop (0r)        
             0x0004054c: c2 b6:       in (2r)         r0, res[r2]
             0x0004054e: ff 17:       nop (0r)        
             0x00040550: d1 a6:       mkmsk (rus)     r0, 0x1
             0x00040552: ff 17:       nop (0r)        
             0x00040554: c1 ae:       out (r2r)       res[r1], r0
             0x00040556: c0 90:       add (2rus)      r0, r4, 0x0
             0x00040558: 00 f0 6c d4: bl (lu10)       -0x6c <_SwaitForVSync_0>
             0x0004055c: 02 f0 00 68: ldc (lru6)      r0, 0x80
             0x00040560: 00 f0 6e d4: bl (lu10)       -0x6e <_SwaitForVSync_0>
             0x00040564: 5d f2 ac 62: ldaw (lru6)     r10, dp[0x976c]
             0x00040568: 83 f2 60 62: ldaw (lru6)     r9, dp[0xa0e0]
             0x0004056c: 03 f0 30 69: ldc (lru6)      r4, 0xf0
.label17     0x00040570: 19 4f:       outct (rus)     res[r6], 0x1
             0x00040572: ff 17:       nop (0r)        
             0x00040574: 19 cf:       chkct (rus)     res[r6], 0x1
             0x00040576: ff 17:       nop (0r)        
             0x00040578: e2 ae:       out (r2r)       res[r6], r8
             0x0004057a: ff 17:       nop (0r)        
             0x0004057c: 19 4f:       outct (rus)     res[r6], 0x1
             0x0004057e: ff 17:       nop (0r)        
             0x00040580: 19 cf:       chkct (rus)     res[r6], 0x1
             0x00040582: ff 17:       nop (0r)        
             0x00040584: 15 4f:       outct (rus)     res[r5], 0x1
             0x00040586: ff 17:       nop (0r)        
             0x00040588: 15 cf:       chkct (rus)     res[r5], 0x1
             0x0004058a: ff 17:       nop (0r)        
             0x0004058c: cd af:       out (r2r)       res[r5], r7
             0x0004058e: ff 17:       nop (0r)        
             0x00040590: 15 4f:       outct (rus)     res[r5], 0x1
             0x00040592: ff 17:       nop (0r)        
             0x00040594: 15 cf:       chkct (rus)     res[r5], 0x1
             0x00040596: ff 17:       nop (0r)        
             0x00040598: 19 4f:       outct (rus)     res[r6], 0x1
             0x0004059a: ff 17:       nop (0r)        
             0x0004059c: 19 cf:       chkct (rus)     res[r6], 0x1
             0x0004059e: ff 17:       nop (0r)        
             0x000405a0: ea ae:       out (r2r)       res[r6], r10
             0x000405a2: ff 17:       nop (0r)        
             0x000405a4: 19 4f:       outct (rus)     res[r6], 0x1
             0x000405a6: ff 17:       nop (0r)        
             0x000405a8: 19 cf:       chkct (rus)     res[r6], 0x1
             0x000405aa: ff 17:       nop (0r)        
             0x000405ac: 15 4f:       outct (rus)     res[r5], 0x1
             0x000405ae: ff 17:       nop (0r)        
             0x000405b0: 15 cf:       chkct (rus)     res[r5], 0x1
             0x000405b2: ff 17:       nop (0r)        
             0x000405b4: e5 ae:       out (r2r)       res[r5], r9
             0x000405b6: ff 17:       nop (0r)        
             0x000405b8: 15 4f:       outct (rus)     res[r5], 0x1
             0x000405ba: ff 17:       nop (0r)        
             0x000405bc: 15 cf:       chkct (rus)     res[r5], 0x1
             0x000405be: ff 17:       nop (0r)        
             0x000405c0: 01 f0 00 68: ldc (lru6)      r0, 0x40
             0x000405c4: 10 90:       add (2rus)      r1, r0, 0x0
             0x000405c6: ff 17:       nop (0r)        
             0x000405c8: 00 f0 77 d4: bl (lu10)       -0x77 <waitForHREF>
             0x000405cc: 19 4f:       outct (rus)     res[r6], 0x1
             0x000405ce: 43 92:       add (2rus)      r0, r0, 0x7
             0x000405d0: 19 cf:       chkct (rus)     res[r6], 0x1
             0x000405d2: ff 17:       nop (0r)        
             0x000405d4: 82 af:       out (r2r)       res[r6], r0
             0x000405d6: ff 17:       nop (0r)        
             0x000405d8: 19 4f:       outct (rus)     res[r6], 0x1
             0x000405da: ff 17:       nop (0r)        
             0x000405dc: 19 cf:       chkct (rus)     res[r6], 0x1
             0x000405de: ff 17:       nop (0r)        
             0x000405e0: 15 4f:       outct (rus)     res[r5], 0x1
             0x000405e2: ff 17:       nop (0r)        
             0x000405e4: 15 cf:       chkct (rus)     res[r5], 0x1
             0x000405e6: ff 17:       nop (0r)        
             0x000405e8: 81 af:       out (r2r)       res[r5], r0
             0x000405ea: ff 17:       nop (0r)        
             0x000405ec: 15 4f:       outct (rus)     res[r5], 0x1
             0x000405ee: ff 17:       nop (0r)        
             0x000405f0: 15 cf:       chkct (rus)     res[r5], 0x1
             0x000405f2: ff 17:       nop (0r)        
             0x000405f4: 19 cf:       chkct (rus)     res[r6], 0x1
             0x000405f6: ff 17:       nop (0r)        
             0x000405f8: 19 4f:       outct (rus)     res[r6], 0x1
             0x000405fa: ff 17:       nop (0r)        
             0x000405fc: 82 b7:       in (2r)         r0, res[r6]
             0x000405fe: ff 17:       nop (0r)        
             0x00040600: 19 cf:       chkct (rus)     res[r6], 0x1
             0x00040602: ff 17:       nop (0r)        
             0x00040604: 19 4f:       outct (rus)     res[r6], 0x1
             0x00040606: ff 17:       nop (0r)        
             0x00040608: 15 cf:       chkct (rus)     res[r5], 0x1
             0x0004060a: ff 17:       nop (0r)        
             0x0004060c: 15 4f:       outct (rus)     res[r5], 0x1
             0x0004060e: ff 17:       nop (0r)        
             0x00040610: 81 b7:       in (2r)         r0, res[r5]
             0x00040612: ff 17:       nop (0r)        
             0x00040614: 15 cf:       chkct (rus)     res[r5], 0x1
             0x00040616: ff 17:       nop (0r)        
             0x00040618: 15 4f:       outct (rus)     res[r5], 0x1
             0x0004061a: 01 99:       sub (2rus)      r4, r4, 0x1
             0x0004061c: 96 fe ec 9f: ldaw (l2rus)    r9, r9[0xa]
             0x00040620: aa fe ec 9f: ldaw (l2rus)    r10, r10[0xa]
             0x00040624: 05 f0 00 68: ldc (lru6)      r0, 0x140
             0x00040628: 3c 11:       add (3r)        r7, r7, r0
             0x0004062a: 00 12:       add (3r)        r8, r8, r0
             0x0004062c: 00 f0 30 75: bt (lru6)       r4, -0x30 <.label17>
             0x00040630: 00 f0 2c 62: ldaw (lru6)     r8, dp[0x2c]
             0x00040634: 80 91:       add (2rus)      r0, r8, 0x0
             0x00040636: ff 17:       nop (0r)        
             0x00040638: 01 f0 c1 6e: ldw (lru6)      r11, cp[0x41]
             0x0004063c: 9c 91:       add (2rus)      r1, r11, 0x0
             0x0004063e: c5 5c:       ldw (ru6)       r3, sp[0x5]
             0x00040640: 00 69:       ldc (ru6)       r4, 0x0
             0x00040642: ff 17:       nop (0r)        
.label18     0x00040644: dd 4e:       outct (rus)     res[r3], 0x1
             0x00040646: 60 8a:       ld8u (3r)       r2, r0[r4]
             0x00040648: dd ce:       chkct (rus)     res[r3], 0x1
             0x0004064a: ff 17:       nop (0r)        
             0x0004064c: db 0e:       outt (r2r)      res[r3], r2
             0x0004064e: ff 17:       nop (0r)        
             0x00040650: dd 4e:       outct (rus)     res[r3], 0x1
             0x00040652: ff 17:       nop (0r)        
             0x00040654: dd ce:       chkct (rus)     res[r3], 0x1
             0x00040656: 15 98:       sub (2rus)      r1, r1, 0x1
             0x00040658: 01 90:       add (2rus)      r0, r0, 0x1
             0x0004065a: ff 17:       nop (0r)        
             0x0004065c: 00 f0 47 74: bt (lru6)       r1, -0x7 <.label18>
             0x00040660: 2f f1 cc 61: ldaw (lru6)     r7, dp[0x4bcc]
             0x00040664: cc 90:       add (2rus)      r0, r7, 0x0
             0x00040666: 9c 91:       add (2rus)      r1, r11, 0x0
.label19     0x00040668: dd 4e:       outct (rus)     res[r3], 0x1
             0x0004066a: 60 8a:       ld8u (3r)       r2, r0[r4]
             0x0004066c: dd ce:       chkct (rus)     res[r3], 0x1
             0x0004066e: ff 17:       nop (0r)        
             0x00040670: db 0e:       outt (r2r)      res[r3], r2
             0x00040672: ff 17:       nop (0r)        
             0x00040674: dd 4e:       outct (rus)     res[r3], 0x1
             0x00040676: ff 17:       nop (0r)        
             0x00040678: dd ce:       chkct (rus)     res[r3], 0x1
             0x0004067a: 15 98:       sub (2rus)      r1, r1, 0x1
             0x0004067c: 01 90:       add (2rus)      r0, r0, 0x1
             0x0004067e: ff 17:       nop (0r)        
             0x00040680: 00 f0 47 74: bt (lru6)       r1, -0x7 <.label19>
             0x00040684: 01 f0 19 77: bu (lu6)        -0x59 <.label20>

<launchCameras.task.gatherDataThread.0>:
             0x00040688: ff 17:       nop (0r)        
             0x0004068a: 82 7f:       dualentsp (u6)  0x2
             0x0004068c: ff 17:       nop (0r)        
             0x0004068e: 01 08:       ldw (2rus)      r0, r0[0x1]
             0x00040690: 00 f0 65 60: ldaw (lru6)     r1, dp[0x25]
             0x00040694: 00 f0 99 d4: bl (lu10)       -0x99 <gatherDataThread>

<launchCameras.task.gatherDataThread.1>:
             0x00040698: ff 17:       nop (0r)        
             0x0004069a: 82 7f:       dualentsp (u6)  0x2
             0x0004069c: ff 17:       nop (0r)        
             0x0004069e: 03 08:       ldw (2rus)      r0, r0[0x3]
             0x000406a0: 00 f0 6a 60: ldaw (lru6)     r1, dp[0x2a]
             0x000406a4: 00 f0 9d d4: bl (lu10)       -0x9d <gatherDataThread>

<launchCameras.task.ov07740_capture.2>:
             0x000406a8: ff 17:       nop (0r)        
             0x000406aa: 82 7f:       dualentsp (u6)  0x2
             0x000406ac: ff 17:       nop (0r)        
             0x000406ae: 32 08:       ldw (2rus)      r3, r0[0x2]
             0x000406b0: ff 17:       nop (0r)        
             0x000406b2: 50 0a:       ldw (2rus)      r1, r0[0x4]
             0x000406b4: 0c 90:       add (2rus)      r0, r3, 0x0
             0x000406b6: 20 08:       ldw (2rus)      r2, r0[0x0]
             0x000406b8: 00 f0 73 d4: bl (lu10)       -0x73 <ov07740_capture>

<sccb_init>:
             0x000406bc: d0 68:       ldc (ru6)       r3, 0x10
             0x000406be: 80 7f:       dualentsp (u6)  0x0
             0x000406c0: de 16:       setd (r2r)      res[r2], r3
             0x000406c2: ff 17:       nop (0r)        
             0x000406c4: d8 fe ec 0f: setclk (lr2r)   res[r0], r2
             0x000406c8: d9 fe ec 0f: setclk (lr2r)   res[r1], r2
             0x000406cc: 8f e8:       setc (ru6)      res[r2], 0xf
             0x000406ce: d9 a6:       mkmsk (rus)     r2, 0x1
             0x000406d0: c8 ae:       out (r2r)       res[r0], r2
             0x000406d2: ff 17:       nop (0r)        
             0x000406d4: c9 ae:       out (r2r)       res[r1], r2
             0x000406d6: c0 77:       retsp (u6)      0x0

<_Ssccb_wr_0>:
             0x000406d8: ff 17:       nop (0r)        
             0x000406da: 88 7f:       dualentsp (u6)  0x8
             0x000406dc: 05 f9 ec f7: std (l2rus)     r5, r4, sp[0x1]
             0x000406e0: 2e f9 ec f7: std (l2rus)     r7, r6, sp[0x2]
             0x000406e4: 07 fa ec f7: std (l2rus)     r9, r8, sp[0x3]
             0x000406e8: 4c 90:       add (2rus)      r4, r3, 0x0
             0x000406ea: 58 90:       add (2rus)      r5, r2, 0x0
             0x000406ec: 74 90:       add (2rus)      r7, r1, 0x0
             0x000406ee: 80 90:       add (2rus)      r8, r0, 0x0
             0x000406f0: 55 a7:       mkmsk (rus)     r9, 0x1
             0x000406f2: ff 17:       nop (0r)        
             0x000406f4: e5 ae:       out (r2r)       res[r5], r9
             0x000406f6: ff 17:       nop (0r)        
             0x000406f8: e4 ae:       out (r2r)       res[r4], r9
             0x000406fa: ff 17:       nop (0r)        
             0x000406fc: f5 87:       syncr (1r)      res[r5]
             0x000406fe: ff 17:       nop (0r)        
             0x00040700: e5 ae:       out (r2r)       res[r5], r9
             0x00040702: ff 17:       nop (0r)        
             0x00040704: f5 87:       syncr (1r)      res[r5]
             0x00040706: ff 17:       nop (0r)        
             0x00040708: 81 3f:       getts (2r)      r0, res[r5]
             0x0004070a: ff 17:       nop (0r)        
             0x0004070c: 50 fa ec 9f: ldaw (l2rus)    r1, r0[0x4]
             0x00040710: 94 3f:       setpt (r2r)     res[r4], r1
             0x00040712: ff 17:       nop (0r)        
             0x00040714: e4 ae:       out (r2r)       res[r4], r9
             0x00040716: 70 68:       ldc (ru6)       r1, 0x30
             0x00040718: 01 10:       add (3r)        r0, r0, r1
             0x0004071a: ff 17:       nop (0r)        
             0x0004071c: 90 3f:       setpt (r2r)     res[r4], r0
             0x0004071e: 80 69:       ldc (ru6)       r6, 0x0
             0x00040720: c8 af:       out (r2r)       res[r4], r6
             0x00040722: ff 17:       nop (0r)        
             0x00040724: f4 87:       syncr (1r)      res[r4]
             0x00040726: ff 17:       nop (0r)        
             0x00040728: 01 f0 37 68: ldc (lru6)      r0, 0x77
             0x0004072c: d4 90:       add (2rus)      r1, r5, 0x0
             0x0004072e: e0 90:       add (2rus)      r2, r4, 0x0
             0x00040730: 00 f0 69 d0: bl (lu10)       0x69 <_Sphase1_0>
             0x00040734: 80 91:       add (2rus)      r0, r8, 0x0
             0x00040736: d4 90:       add (2rus)      r1, r5, 0x0
             0x00040738: e0 90:       add (2rus)      r2, r4, 0x0
             0x0004073a: ff 17:       nop (0r)        
             0x0004073c: 00 f0 8e d0: bl (lu10)       0x8e <phase2w>
             0x00040740: cc 90:       add (2rus)      r0, r7, 0x0
             0x00040742: d4 90:       add (2rus)      r1, r5, 0x0
             0x00040744: e0 90:       add (2rus)      r2, r4, 0x0
             0x00040746: ff 17:       nop (0r)        
             0x00040748: 00 f0 d7 d0: bl (lu10)       0xd7 <phase3>
             0x0004074c: f5 87:       syncr (1r)      res[r5]
             0x0004074e: ff 17:       nop (0r)        
             0x00040750: e5 ae:       out (r2r)       res[r5], r9
             0x00040752: ff 17:       nop (0r)        
             0x00040754: f5 87:       syncr (1r)      res[r5]
             0x00040756: ff 17:       nop (0r)        
             0x00040758: 81 3f:       getts (2r)      r0, res[r5]
             0x0004075a: ff 17:       nop (0r)        
             0x0004075c: 90 94:       add (2rus)      r1, r0, 0x8
             0x0004075e: ff 17:       nop (0r)        
             0x00040760: 95 3f:       setpt (r2r)     res[r5], r1
             0x00040762: ff 17:       nop (0r)        
             0x00040764: c9 af:       out (r2r)       res[r5], r6
             0x00040766: ff 17:       nop (0r)        
             0x00040768: 13 f8 ec 9f: ldaw (l2rus)    r1, r0[0x3]
             0x0004076c: 94 3f:       setpt (r2r)     res[r4], r1
             0x0004076e: ff 17:       nop (0r)        
             0x00040770: c8 af:       out (r2r)       res[r4], r6
             0x00040772: ff 17:       nop (0r)        
             0x00040774: 50 fa ec 9f: ldaw (l2rus)    r1, r0[0x4]
             0x00040778: 95 3f:       setpt (r2r)     res[r5], r1
             0x0004077a: ff 17:       nop (0r)        
             0x0004077c: e5 ae:       out (r2r)       res[r5], r9
             0x0004077e: ff 17:       nop (0r)        
             0x00040780: 80 fc ec 9f: ldaw (l2rus)    r0, r0[0x8]
             0x00040784: 90 3f:       setpt (r2r)     res[r4], r0
             0x00040786: ff 17:       nop (0r)        
             0x00040788: e4 ae:       out (r2r)       res[r4], r9
             0x0004078a: ff 17:       nop (0r)        
             0x0004078c: f4 87:       syncr (1r)      res[r4]
             0x0004078e: c8 90:       add (2rus)      r0, r6, 0x0
             0x00040790: 07 fa ec ef: ldd (l2rus)     r9, r8, sp[0x3]
             0x00040794: 2e f9 ec ef: ldd (l2rus)     r7, r6, sp[0x2]
             0x00040798: 05 f9 ec ef: ldd (l2rus)     r5, r4, sp[0x1]
             0x0004079c: ff 17:       nop (0r)        
             0x0004079e: c8 77:       retsp (u6)      0x8

<_Ssccb_rd_0>:
             0x000407a0: ff 17:       nop (0r)        
             0x000407a2: 88 7f:       dualentsp (u6)  0x8
             0x000407a4: 05 f9 ec f7: std (l2rus)     r5, r4, sp[0x1]
             0x000407a8: 2e f9 ec f7: std (l2rus)     r7, r6, sp[0x2]
             0x000407ac: 07 fa ec f7: std (l2rus)     r9, r8, sp[0x3]
             0x000407b0: 48 90:       add (2rus)      r4, r2, 0x0
             0x000407b2: 54 90:       add (2rus)      r5, r1, 0x0
             0x000407b4: 60 90:       add (2rus)      r6, r0, 0x0
             0x000407b6: 1d a7:       mkmsk (rus)     r7, 0x1
             0x000407b8: cd af:       out (r2r)       res[r5], r7
             0x000407ba: ff 17:       nop (0r)        
             0x000407bc: cc af:       out (r2r)       res[r4], r7
             0x000407be: ff 17:       nop (0r)        
             0x000407c0: f5 87:       syncr (1r)      res[r5]
             0x000407c2: ff 17:       nop (0r)        
             0x000407c4: cd af:       out (r2r)       res[r5], r7
             0x000407c6: ff 17:       nop (0r)        
             0x000407c8: f5 87:       syncr (1r)      res[r5]
             0x000407ca: ff 17:       nop (0r)        
             0x000407cc: 81 3f:       getts (2r)      r0, res[r5]
             0x000407ce: ff 17:       nop (0r)        
             0x000407d0: 50 fa ec 9f: ldaw (l2rus)    r1, r0[0x4]
             0x000407d4: 94 3f:       setpt (r2r)     res[r4], r1
             0x000407d6: ff 17:       nop (0r)        
             0x000407d8: cc af:       out (r2r)       res[r4], r7
             0x000407da: 70 6a:       ldc (ru6)       r9, 0x30
             0x000407dc: 81 14:       add (3r)        r0, r0, r9
             0x000407de: ff 17:       nop (0r)        
             0x000407e0: 90 3f:       setpt (r2r)     res[r4], r0
             0x000407e2: 00 6a:       ldc (ru6)       r8, 0x0
             0x000407e4: e0 ae:       out (r2r)       res[r4], r8
             0x000407e6: ff 17:       nop (0r)        
             0x000407e8: f4 87:       syncr (1r)      res[r4]
             0x000407ea: ff 17:       nop (0r)        
             0x000407ec: 01 f0 37 68: ldc (lru6)      r0, 0x77
             0x000407f0: d4 90:       add (2rus)      r1, r5, 0x0
             0x000407f2: ff 17:       nop (0r)        
             0x000407f4: 00 f0 38 d0: bl (lu10)       0x38 <_Sphase1_0>
             0x000407f8: c8 90:       add (2rus)      r0, r6, 0x0
             0x000407fa: d4 90:       add (2rus)      r1, r5, 0x0
             0x000407fc: e0 90:       add (2rus)      r2, r4, 0x0
             0x000407fe: ff 17:       nop (0r)        
             0x00040800: 00 f0 5d d0: bl (lu10)       0x5d <phase2w>
             0x00040804: f5 87:       syncr (1r)      res[r5]
             0x00040806: ff 17:       nop (0r)        
             0x00040808: cd af:       out (r2r)       res[r5], r7
             0x0004080a: ff 17:       nop (0r)        
             0x0004080c: f5 87:       syncr (1r)      res[r5]
             0x0004080e: ff 17:       nop (0r)        
             0x00040810: 81 3f:       getts (2r)      r0, res[r5]
             0x00040812: ff 17:       nop (0r)        
             0x00040814: 90 94:       add (2rus)      r1, r0, 0x8
             0x00040816: ff 17:       nop (0r)        
             0x00040818: 95 3f:       setpt (r2r)     res[r5], r1
             0x0004081a: ff 17:       nop (0r)        
             0x0004081c: e1 ae:       out (r2r)       res[r5], r8
             0x0004081e: ff 17:       nop (0r)        
             0x00040820: 13 f8 ec 9f: ldaw (l2rus)    r1, r0[0x3]
             0x00040824: 94 3f:       setpt (r2r)     res[r4], r1
             0x00040826: ff 17:       nop (0r)        
             0x00040828: e0 ae:       out (r2r)       res[r4], r8
             0x0004082a: ff 17:       nop (0r)        
             0x0004082c: 50 fa ec 9f: ldaw (l2rus)    r1, r0[0x4]
             0x00040830: 95 3f:       setpt (r2r)     res[r5], r1
             0x00040832: ff 17:       nop (0r)        
             0x00040834: cd af:       out (r2r)       res[r5], r7
             0x00040836: ff 17:       nop (0r)        
             0x00040838: 80 fc ec 9f: ldaw (l2rus)    r0, r0[0x8]
             0x0004083c: 90 3f:       setpt (r2r)     res[r4], r0
             0x0004083e: ff 17:       nop (0r)        
             0x00040840: cc af:       out (r2r)       res[r4], r7
             0x00040842: ff 17:       nop (0r)        
             0x00040844: f4 87:       syncr (1r)      res[r4]
             0x00040846: ff 17:       nop (0r)        
             0x00040848: f5 87:       syncr (1r)      res[r5]
             0x0004084a: ff 17:       nop (0r)        
             0x0004084c: cd af:       out (r2r)       res[r5], r7
             0x0004084e: ff 17:       nop (0r)        
             0x00040850: f5 87:       syncr (1r)      res[r5]
             0x00040852: ff 17:       nop (0r)        
             0x00040854: 81 3f:       getts (2r)      r0, res[r5]
             0x00040856: ff 17:       nop (0r)        
             0x00040858: 50 fa ec 9f: ldaw (l2rus)    r1, r0[0x4]
             0x0004085c: 94 3f:       setpt (r2r)     res[r4], r1
             0x0004085e: ff 17:       nop (0r)        
             0x00040860: cc af:       out (r2r)       res[r4], r7
             0x00040862: 81 14:       add (3r)        r0, r0, r9
             0x00040864: 90 3f:       setpt (r2r)     res[r4], r0
             0x00040866: ff 17:       nop (0r)        
             0x00040868: e0 ae:       out (r2r)       res[r4], r8
             0x0004086a: ff 17:       nop (0r)        
             0x0004086c: f4 87:       syncr (1r)      res[r4]
             0x0004086e: ff 17:       nop (0r)        
             0x00040870: 01 f0 32 68: ldc (lru6)      r0, 0x72
             0x00040874: d4 90:       add (2rus)      r1, r5, 0x0
             0x00040876: e0 90:       add (2rus)      r2, r4, 0x0
             0x00040878: 00 f0 17 d0: bl (lu10)       0x17 <_Sphase1_0>
             0x0004087c: c4 90:       add (2rus)      r0, r5, 0x0
             0x0004087e: d0 90:       add (2rus)      r1, r4, 0x0
             0x00040880: 00 f0 62 d0: bl (lu10)       0x62 <phase2r>
             0x00040884: f5 87:       syncr (1r)      res[r5]
             0x00040886: ff 17:       nop (0r)        
             0x00040888: cd af:       out (r2r)       res[r5], r7
             0x0004088a: ff 17:       nop (0r)        
             0x0004088c: f5 87:       syncr (1r)      res[r5]
             0x0004088e: ff 17:       nop (0r)        
             0x00040890: 85 3f:       getts (2r)      r1, res[r5]
             0x00040892: ff 17:       nop (0r)        
             0x00040894: a4 94:       add (2rus)      r2, r1, 0x8
             0x00040896: ff 17:       nop (0r)        
             0x00040898: 99 3f:       setpt (r2r)     res[r5], r2
             0x0004089a: ff 17:       nop (0r)        
             0x0004089c: e1 ae:       out (r2r)       res[r5], r8
             0x0004089e: ff 17:       nop (0r)        
             0x000408a0: 27 f8 ec 9f: ldaw (l2rus)    r2, r1[0x3]
             0x000408a4: 98 3f:       setpt (r2r)     res[r4], r2
             0x000408a6: ff 17:       nop (0r)        
             0x000408a8: e0 ae:       out (r2r)       res[r4], r8
             0x000408aa: ff 17:       nop (0r)        
             0x000408ac: 64 fa ec 9f: ldaw (l2rus)    r2, r1[0x4]
             0x000408b0: 99 3f:       setpt (r2r)     res[r5], r2
             0x000408b2: ff 17:       nop (0r)        
             0x000408b4: cd af:       out (r2r)       res[r5], r7
             0x000408b6: ff 17:       nop (0r)        
             0x000408b8: 94 fc ec 9f: ldaw (l2rus)    r1, r1[0x8]
             0x000408bc: 94 3f:       setpt (r2r)     res[r4], r1
             0x000408be: ff 17:       nop (0r)        
             0x000408c0: cc af:       out (r2r)       res[r4], r7
             0x000408c2: ff 17:       nop (0r)        
             0x000408c4: f4 87:       syncr (1r)      res[r4]
             0x000408c6: ff 17:       nop (0r)        
             0x000408c8: 07 fa ec ef: ldd (l2rus)     r9, r8, sp[0x3]
             0x000408cc: 2e f9 ec ef: ldd (l2rus)     r7, r6, sp[0x2]
             0x000408d0: 05 f9 ec ef: ldd (l2rus)     r5, r4, sp[0x1]
             0x000408d4: ff 17:       nop (0r)        
             0x000408d6: c8 77:       retsp (u6)      0x8

<_Sphase1_0>:
             0x000408d8: ff 17:       nop (0r)        
             0x000408da: 80 7f:       dualentsp (u6)  0x0
             0x000408dc: 84 77:       extsp (u6)      0x4
             0x000408de: ff 17:       nop (0r)        
             0x000408e0: 04 f9 ec f7: std (l2rus)     r5, r4, sp[0x0]
             0x000408e4: 2d f9 ec f7: std (l2rus)     r7, r6, sp[0x1]
             0x000408e8: 01 f0 f2 68: ldc (lru6)      r3, 0x72
             0x000408ec: 03 30:       eq (3r)         r0, r0, r3
             0x000408ee: ff 17:       nop (0r)        
             0x000408f0: 01 f0 c2 68: ldc (lru6)      r3, 0x42
             0x000408f4: b3 40:       or (3r)         r11, r0, r3
             0x000408f6: d1 a6:       mkmsk (rus)     r0, 0x1
             0x000408f8: c1 ae:       out (r2r)       res[r1], r0
             0x000408fa: ff 17:       nop (0r)        
             0x000408fc: f1 87:       syncr (1r)      res[r1]
             0x000408fe: ff 17:       nop (0r)        
             0x00040900: cd 3e:       getts (2r)      r3, res[r1]
             0x00040902: ff 17:       nop (0r)        
             0x00040904: 9e fa ec 9f: ldaw (l2rus)    r5, r3[0x6]
             0x00040908: 88 69:       ldc (ru6)       r6, 0x8
             0x0004090a: 00 69:       ldc (ru6)       r4, 0x0
.label21     0x0004090c: b4 9d:       sub (2rus)      r7, r5, 0x8
             0x0004090e: ff 17:       nop (0r)        
             0x00040910: 1d 3f:       setpt (r2r)     res[r1], r7
             0x00040912: ff 17:       nop (0r)        
             0x00040914: 01 af:       out (r2r)       res[r1], r4
             0x00040916: 74 9b:       sub (2rus)      r7, r5, 0x4
             0x00040918: 1e 3f:       setpt (r2r)     res[r2], r7
             0x0004091a: 29 99:       sub (2rus)      r6, r6, 0x1
             0x0004091c: 3e 2c:       shr (3r)        r7, r11, r6
             0x0004091e: ff 17:       nop (0r)        
             0x00040920: 0e af:       out (r2r)       res[r2], r7
             0x00040922: ff 17:       nop (0r)        
             0x00040924: 15 3f:       setpt (r2r)     res[r1], r5
             0x00040926: ff 17:       nop (0r)        
             0x00040928: c1 ae:       out (r2r)       res[r1], r0
             0x0004092a: ff 17:       nop (0r)        
             0x0004092c: 54 fb ec 9f: ldaw (l2rus)    r5, r5[0x4]
             0x00040930: 00 f0 8a 75: bt (lru6)       r6, -0xa <.label21>
             0x00040934: 02 f0 d0 6a: ldc (lru6)      r11, 0x90
             0x00040938: 3f 15:       add (3r)        r11, r3, r11
             0x0004093a: ff 17:       nop (0r)        
             0x0004093c: 5d 3f:       setpt (r2r)     res[r1], r11
             0x0004093e: ff 17:       nop (0r)        
             0x00040940: 01 af:       out (r2r)       res[r1], r4
             0x00040942: ff 17:       nop (0r)        
             0x00040944: 81 e8:       setc (ru6)      res[r2], 0x1
             0x00040946: ff 17:       nop (0r)        
             0x00040948: 02 f0 d4 6a: ldc (lru6)      r11, 0x94
             0x0004094c: 3f 15:       add (3r)        r11, r3, r11
             0x0004094e: ff 17:       nop (0r)        
             0x00040950: 5e 3f:       setpt (r2r)     res[r2], r11
             0x00040952: ff 17:       nop (0r)        
             0x00040954: ca b6:       in (2r)         r2, res[r2]
             0x00040956: ff 17:       nop (0r)        
             0x00040958: 02 f0 98 68: ldc (lru6)      r2, 0x98
             0x0004095c: 2e 10:       add (3r)        r2, r3, r2
             0x0004095e: ff 17:       nop (0r)        
             0x00040960: d9 3e:       setpt (r2r)     res[r1], r2
             0x00040962: ff 17:       nop (0r)        
             0x00040964: c1 ae:       out (r2r)       res[r1], r0
             0x00040966: ff 17:       nop (0r)        
             0x00040968: 2d f9 ec ef: ldd (l2rus)     r7, r6, sp[0x1]
             0x0004096c: 04 f9 ec ef: ldd (l2rus)     r5, r4, sp[0x0]
             0x00040970: 84 67:       ldaw (ru6)      sp, sp[0x4]
             0x00040972: ff 17:       nop (0r)        
             0x00040974: ff 17:       nop (0r)        
             0x00040976: c0 77:       retsp (u6)      0x0

<phase2w>:
             0x00040978: ff 17:       nop (0r)        
             0x0004097a: 80 7f:       dualentsp (u6)  0x0
             0x0004097c: 84 77:       extsp (u6)      0x4
             0x0004097e: ff 17:       nop (0r)        
             0x00040980: 04 f9 ec f7: std (l2rus)     r5, r4, sp[0x0]
             0x00040984: 2d f9 ec f7: std (l2rus)     r7, r6, sp[0x1]
             0x00040988: dd a6:       mkmsk (rus)     r3, 0x1
             0x0004098a: ff 17:       nop (0r)        
             0x0004098c: cd ae:       out (r2r)       res[r1], r3
             0x0004098e: ff 17:       nop (0r)        
             0x00040990: f1 87:       syncr (1r)      res[r1]
             0x00040992: ff 17:       nop (0r)        
             0x00040994: 4d 3f:       getts (2r)      r11, res[r1]
             0x00040996: ff 17:       nop (0r)        
             0x00040998: 1e fc ec 9f: ldaw (l2rus)    r5, r11[0x6]
             0x0004099c: 88 69:       ldc (ru6)       r6, 0x8
             0x0004099e: 00 69:       ldc (ru6)       r4, 0x0
.label22     0x000409a0: b4 9d:       sub (2rus)      r7, r5, 0x8
             0x000409a2: ff 17:       nop (0r)        
             0x000409a4: 1d 3f:       setpt (r2r)     res[r1], r7
             0x000409a6: ff 17:       nop (0r)        
             0x000409a8: 01 af:       out (r2r)       res[r1], r4
             0x000409aa: 74 9b:       sub (2rus)      r7, r5, 0x4
             0x000409ac: 1e 3f:       setpt (r2r)     res[r2], r7
             0x000409ae: 29 99:       sub (2rus)      r6, r6, 0x1
             0x000409b0: b2 fa ec 17: ashr (l3r)      r7, r0, r6
             0x000409b4: 0e af:       out (r2r)       res[r2], r7
             0x000409b6: ff 17:       nop (0r)        
             0x000409b8: 15 3f:       setpt (r2r)     res[r1], r5
             0x000409ba: ff 17:       nop (0r)        
             0x000409bc: cd ae:       out (r2r)       res[r1], r3
             0x000409be: ff 17:       nop (0r)        
             0x000409c0: 54 fb ec 9f: ldaw (l2rus)    r5, r5[0x4]
             0x000409c4: 00 f0 8a 75: bt (lru6)       r6, -0xa <.label22>
             0x000409c8: 02 f0 10 68: ldc (lru6)      r0, 0x90
             0x000409cc: 8c 11:       add (3r)        r0, r11, r0
             0x000409ce: ff 17:       nop (0r)        
             0x000409d0: d1 3e:       setpt (r2r)     res[r1], r0
             0x000409d2: ff 17:       nop (0r)        
             0x000409d4: 01 af:       out (r2r)       res[r1], r4
             0x000409d6: ff 17:       nop (0r)        
             0x000409d8: 81 e8:       setc (ru6)      res[r2], 0x1
             0x000409da: ff 17:       nop (0r)        
             0x000409dc: 02 f0 14 68: ldc (lru6)      r0, 0x94
             0x000409e0: 8c 11:       add (3r)        r0, r11, r0
             0x000409e2: ff 17:       nop (0r)        
             0x000409e4: d2 3e:       setpt (r2r)     res[r2], r0
             0x000409e6: ff 17:       nop (0r)        
             0x000409e8: c2 b6:       in (2r)         r0, res[r2]
             0x000409ea: ff 17:       nop (0r)        
             0x000409ec: 02 f0 18 68: ldc (lru6)      r0, 0x98
             0x000409f0: 8c 11:       add (3r)        r0, r11, r0
             0x000409f2: ff 17:       nop (0r)        
             0x000409f4: d1 3e:       setpt (r2r)     res[r1], r0
             0x000409f6: ff 17:       nop (0r)        
             0x000409f8: cd ae:       out (r2r)       res[r1], r3
             0x000409fa: ff 17:       nop (0r)        
             0x000409fc: 2d f9 ec ef: ldd (l2rus)     r7, r6, sp[0x1]
             0x00040a00: 04 f9 ec ef: ldd (l2rus)     r5, r4, sp[0x0]
             0x00040a04: 84 67:       ldaw (ru6)      sp, sp[0x4]
             0x00040a06: ff 17:       nop (0r)        
             0x00040a08: ff 17:       nop (0r)        
             0x00040a0a: c0 77:       retsp (u6)      0x0

<phase2r>:
             0x00040a0c: ff 17:       nop (0r)        
             0x00040a0e: 80 7f:       dualentsp (u6)  0x0
             0x00040a10: 84 77:       extsp (u6)      0x4
             0x00040a12: ff 17:       nop (0r)        
             0x00040a14: 04 f9 ec f7: std (l2rus)     r5, r4, sp[0x0]
             0x00040a18: 2d f9 ec f7: std (l2rus)     r7, r6, sp[0x1]
             0x00040a1c: dd a6:       mkmsk (rus)     r3, 0x1
             0x00040a1e: ff 17:       nop (0r)        
             0x00040a20: cc ae:       out (r2r)       res[r0], r3
             0x00040a22: ff 17:       nop (0r)        
             0x00040a24: f0 87:       syncr (1r)      res[r0]
             0x00040a26: ff 17:       nop (0r)        
             0x00040a28: 4c 3f:       getts (2r)      r11, res[r0]
             0x00040a2a: ff 17:       nop (0r)        
             0x00040a2c: 41 e8:       setc (ru6)      res[r1], 0x1
             0x00040a2e: ff 17:       nop (0r)        
             0x00040a30: 0f fc ec 9f: ldaw (l2rus)    r4, r11[0x7]
             0x00040a34: 40 69:       ldc (ru6)       r5, 0x0
             0x00040a36: 88 69:       ldc (ru6)       r6, 0x8
             0x00040a38: e4 90:       add (2rus)      r2, r5, 0x0
             0x00040a3a: ff 17:       nop (0r)        
.label23     0x00040a3c: 33 f9 ec a7: ldaw (l2rus)    r7, r4[-0x3]
             0x00040a40: 1c 3f:       setpt (r2r)     res[r0], r7
             0x00040a42: ff 17:       nop (0r)        
             0x00040a44: 04 af:       out (r2r)       res[r0], r5
             0x00040a46: 70 9b:       sub (2rus)      r7, r4, 0x4
             0x00040a48: 1c 3f:       setpt (r2r)     res[r0], r7
             0x00040a4a: ff 17:       nop (0r)        
             0x00040a4c: cc ae:       out (r2r)       res[r0], r3
             0x00040a4e: ff 17:       nop (0r)        
             0x00040a50: 11 3f:       setpt (r2r)     res[r1], r4
             0x00040a52: ff 17:       nop (0r)        
             0x00040a54: 0d b7:       in (2r)         r7, res[r1]
             0x00040a56: 29 99:       sub (2rus)      r6, r6, 0x1
             0x00040a58: 7e 23:       shl (3r)        r7, r7, r6
             0x00040a5a: ff 17:       nop (0r)        
             0x00040a5c: ee 40:       or (3r)         r2, r7, r2
             0x00040a5e: ff 17:       nop (0r)        
             0x00040a60: 40 fb ec 9f: ldaw (l2rus)    r4, r4[0x4]
             0x00040a64: 00 f0 8b 75: bt (lru6)       r6, -0xb <.label23>
             0x00040a68: 02 f0 10 69: ldc (lru6)      r4, 0x90
             0x00040a6c: 0c 14:       add (3r)        r4, r11, r4
             0x00040a6e: ff 17:       nop (0r)        
             0x00040a70: 10 3f:       setpt (r2r)     res[r0], r4
             0x00040a72: 00 69:       ldc (ru6)       r4, 0x0
             0x00040a74: 00 af:       out (r2r)       res[r0], r4
             0x00040a76: ff 17:       nop (0r)        
             0x00040a78: 02 f0 14 69: ldc (lru6)      r4, 0x94
             0x00040a7c: 0c 14:       add (3r)        r4, r11, r4
             0x00040a7e: ff 17:       nop (0r)        
             0x00040a80: 11 3f:       setpt (r2r)     res[r1], r4
             0x00040a82: ff 17:       nop (0r)        
             0x00040a84: cd ae:       out (r2r)       res[r1], r3
             0x00040a86: ff 17:       nop (0r)        
             0x00040a88: 02 f0 58 68: ldc (lru6)      r1, 0x98
             0x00040a8c: 9d 11:       add (3r)        r1, r11, r1
             0x00040a8e: ff 17:       nop (0r)        
             0x00040a90: d4 3e:       setpt (r2r)     res[r0], r1
             0x00040a92: ff 17:       nop (0r)        
             0x00040a94: cc ae:       out (r2r)       res[r0], r3
             0x00040a96: 08 90:       add (2rus)      r0, r2, 0x0
             0x00040a98: 2d f9 ec ef: ldd (l2rus)     r7, r6, sp[0x1]
             0x00040a9c: 04 f9 ec ef: ldd (l2rus)     r5, r4, sp[0x0]
             0x00040aa0: 84 67:       ldaw (ru6)      sp, sp[0x4]
             0x00040aa2: ff 17:       nop (0r)        
             0x00040aa4: ff 17:       nop (0r)        
             0x00040aa6: c0 77:       retsp (u6)      0x0

<phase3>:
             0x00040aa8: ff 17:       nop (0r)        
             0x00040aaa: 80 7f:       dualentsp (u6)  0x0
             0x00040aac: 84 77:       extsp (u6)      0x4
             0x00040aae: ff 17:       nop (0r)        
             0x00040ab0: 04 f9 ec f7: std (l2rus)     r5, r4, sp[0x0]
             0x00040ab4: 2d f9 ec f7: std (l2rus)     r7, r6, sp[0x1]
             0x00040ab8: dd a6:       mkmsk (rus)     r3, 0x1
             0x00040aba: ff 17:       nop (0r)        
             0x00040abc: cd ae:       out (r2r)       res[r1], r3
             0x00040abe: ff 17:       nop (0r)        
             0x00040ac0: f1 87:       syncr (1r)      res[r1]
             0x00040ac2: ff 17:       nop (0r)        
             0x00040ac4: 4d 3f:       getts (2r)      r11, res[r1]
             0x00040ac6: ff 17:       nop (0r)        
             0x00040ac8: 1e fc ec 9f: ldaw (l2rus)    r5, r11[0x6]
             0x00040acc: 88 69:       ldc (ru6)       r6, 0x8
             0x00040ace: 00 69:       ldc (ru6)       r4, 0x0
.label24     0x00040ad0: b4 9d:       sub (2rus)      r7, r5, 0x8
             0x00040ad2: ff 17:       nop (0r)        
             0x00040ad4: 1d 3f:       setpt (r2r)     res[r1], r7
             0x00040ad6: ff 17:       nop (0r)        
             0x00040ad8: 01 af:       out (r2r)       res[r1], r4
             0x00040ada: 74 9b:       sub (2rus)      r7, r5, 0x4
             0x00040adc: 1e 3f:       setpt (r2r)     res[r2], r7
             0x00040ade: 29 99:       sub (2rus)      r6, r6, 0x1
             0x00040ae0: b2 fa ec 17: ashr (l3r)      r7, r0, r6
             0x00040ae4: 0e af:       out (r2r)       res[r2], r7
             0x00040ae6: ff 17:       nop (0r)        
             0x00040ae8: 15 3f:       setpt (r2r)     res[r1], r5
             0x00040aea: ff 17:       nop (0r)        
             0x00040aec: cd ae:       out (r2r)       res[r1], r3
             0x00040aee: ff 17:       nop (0r)        
             0x00040af0: 54 fb ec 9f: ldaw (l2rus)    r5, r5[0x4]
             0x00040af4: 00 f0 8a 75: bt (lru6)       r6, -0xa <.label24>
             0x00040af8: 02 f0 10 68: ldc (lru6)      r0, 0x90
             0x00040afc: 8c 11:       add (3r)        r0, r11, r0
             0x00040afe: ff 17:       nop (0r)        
             0x00040b00: d1 3e:       setpt (r2r)     res[r1], r0
             0x00040b02: ff 17:       nop (0r)        
             0x00040b04: 01 af:       out (r2r)       res[r1], r4
             0x00040b06: ff 17:       nop (0r)        
             0x00040b08: 81 e8:       setc (ru6)      res[r2], 0x1
             0x00040b0a: ff 17:       nop (0r)        
             0x00040b0c: 02 f0 14 68: ldc (lru6)      r0, 0x94
             0x00040b10: 8c 11:       add (3r)        r0, r11, r0
             0x00040b12: ff 17:       nop (0r)        
             0x00040b14: d2 3e:       setpt (r2r)     res[r2], r0
             0x00040b16: ff 17:       nop (0r)        
             0x00040b18: c2 b6:       in (2r)         r0, res[r2]
             0x00040b1a: ff 17:       nop (0r)        
             0x00040b1c: 02 f0 18 68: ldc (lru6)      r0, 0x98
             0x00040b20: 8c 11:       add (3r)        r0, r11, r0
             0x00040b22: ff 17:       nop (0r)        
             0x00040b24: d1 3e:       setpt (r2r)     res[r1], r0
             0x00040b26: ff 17:       nop (0r)        
             0x00040b28: cd ae:       out (r2r)       res[r1], r3
             0x00040b2a: ff 17:       nop (0r)        
             0x00040b2c: 2d f9 ec ef: ldd (l2rus)     r7, r6, sp[0x1]
             0x00040b30: 04 f9 ec ef: ldd (l2rus)     r5, r4, sp[0x0]
             0x00040b34: 84 67:       ldaw (ru6)      sp, sp[0x4]
             0x00040b36: ff 17:       nop (0r)        
             0x00040b38: ff 17:       nop (0r)        
             0x00040b3a: c0 77:       retsp (u6)      0x0

<computeOV7670Data>:
             0x00040b3c: 00 f0 8c 7f: dualentsp (lu6) 0xc
             0x00040b40: 00 f0 82 54: stw (lru6)      r2, sp[0x2]
             0x00040b44: 00 f0 c3 54: stw (lru6)      r3, sp[0x3]
             0x00040b48: 00 f0 04 55: stw (lru6)      r4, sp[0x4]
             0x00040b4c: 00 f0 45 55: stw (lru6)      r5, sp[0x5]
             0x00040b50: 00 f0 86 55: stw (lru6)      r6, sp[0x6]
             0x00040b54: 00 f0 c7 55: stw (lru6)      r7, sp[0x7]
             0x00040b58: 00 f0 08 56: stw (lru6)      r8, sp[0x8]
             0x00040b5c: 00 f0 49 56: stw (lru6)      r9, sp[0x9]
             0x00040b60: 00 f0 8a 56: stw (lru6)      r10, sp[0xa]
             0x00040b64: 00 f0 cb 56: stw (lru6)      r11, sp[0xb]
             0x00040b68: 00 f0 40 69: ldc (lru6)      r5, 0x0
             0x00040b6c: 04 f0 3f 69: ldc (lru6)      r4, 0x13f
             0x00040b70: 00 f0 c0 6a: ldc (lru6)      r11, 0x0

<computeloop>:
             0x00040b74: 15 91:       add (2rus)      r5, r5, 0x1
             0x00040b76: a1 8a:       ld8u (3r)       r6, r0[r5]
             0x00040b78: 15 99:       sub (2rus)      r5, r5, 0x1
             0x00040b7a: b1 8a:       ld8u (3r)       r7, r0[r5]
             0x00040b7c: 15 91:       add (2rus)      r5, r5, 0x1
             0x00040b7e: c5 8a:       ld8u (3r)       r8, r1[r5]
             0x00040b80: 15 91:       add (2rus)      r5, r5, 0x1
             0x00040b82: d5 8a:       ld8u (3r)       r9, r1[r5]
             0x00040b84: 42 1c:       sub (3r)        r8, r8, r6
             0x00040b86: 57 1c:       sub (3r)        r9, r9, r7
             0x00040b88: 68 97:       neg (2r)        r6, r8
             0x00040b8a: 6d 97:       neg (2r)        r7, r9
             0x00040b8c: 0c c5:       lss (3r)        r8, r3, r8
             0x00040b8e: 1d c5:       lss (3r)        r9, r3, r9
             0x00040b90: ae c2:       lss (3r)        r6, r3, r6
             0x00040b92: bf c2:       lss (3r)        r7, r3, r7
             0x00040b94: 22 44:       or (3r)         r6, r8, r6
             0x00040b96: 37 44:       or (3r)         r7, r9, r7
             0x00040b98: 68 91:       add (2rus)      r10, r6, 0x0
             0x00040b9a: 3d a1:       shl (2rus)      r7, r7, 0x1
             0x00040b9c: 6b 44:       or (3r)         r10, r10, r7
             0x00040b9e: ff 17:       nop (0r)        
             0x00040ba0: 15 91:       add (2rus)      r5, r5, 0x1
             0x00040ba2: a1 8a:       ld8u (3r)       r6, r0[r5]
             0x00040ba4: 15 99:       sub (2rus)      r5, r5, 0x1
             0x00040ba6: b1 8a:       ld8u (3r)       r7, r0[r5]
             0x00040ba8: 15 91:       add (2rus)      r5, r5, 0x1
             0x00040baa: c5 8a:       ld8u (3r)       r8, r1[r5]
             0x00040bac: 15 91:       add (2rus)      r5, r5, 0x1
             0x00040bae: d5 8a:       ld8u (3r)       r9, r1[r5]
             0x00040bb0: 42 1c:       sub (3r)        r8, r8, r6
             0x00040bb2: 57 1c:       sub (3r)        r9, r9, r7
             0x00040bb4: 68 97:       neg (2r)        r6, r8
             0x00040bb6: 6d 97:       neg (2r)        r7, r9
             0x00040bb8: 0c c5:       lss (3r)        r8, r3, r8
             0x00040bba: 1d c5:       lss (3r)        r9, r3, r9
             0x00040bbc: ae c2:       lss (3r)        r6, r3, r6
             0x00040bbe: bf c2:       lss (3r)        r7, r3, r7
             0x00040bc0: 22 44:       or (3r)         r6, r8, r6
             0x00040bc2: 37 44:       or (3r)         r7, r9, r7
             0x00040bc4: 2a a1:       shl (2rus)      r6, r6, 0x2
             0x00040bc6: 3f a1:       shl (2rus)      r7, r7, 0x3
             0x00040bc8: 6a 44:       or (3r)         r10, r10, r6
             0x00040bca: ff 17:       nop (0r)        
             0x00040bcc: 6b 44:       or (3r)         r10, r10, r7
             0x00040bce: ff 17:       nop (0r)        
             0x00040bd0: 15 91:       add (2rus)      r5, r5, 0x1
             0x00040bd2: a1 8a:       ld8u (3r)       r6, r0[r5]
             0x00040bd4: 15 99:       sub (2rus)      r5, r5, 0x1
             0x00040bd6: b1 8a:       ld8u (3r)       r7, r0[r5]
             0x00040bd8: 15 91:       add (2rus)      r5, r5, 0x1
             0x00040bda: c5 8a:       ld8u (3r)       r8, r1[r5]
             0x00040bdc: 15 91:       add (2rus)      r5, r5, 0x1
             0x00040bde: d5 8a:       ld8u (3r)       r9, r1[r5]
             0x00040be0: 42 1c:       sub (3r)        r8, r8, r6
             0x00040be2: 57 1c:       sub (3r)        r9, r9, r7
             0x00040be4: 68 97:       neg (2r)        r6, r8
             0x00040be6: 6d 97:       neg (2r)        r7, r9
             0x00040be8: 0c c5:       lss (3r)        r8, r3, r8
             0x00040bea: 1d c5:       lss (3r)        r9, r3, r9
             0x00040bec: ae c2:       lss (3r)        r6, r3, r6
             0x00040bee: bf c2:       lss (3r)        r7, r3, r7
             0x00040bf0: 22 44:       or (3r)         r6, r8, r6
             0x00040bf2: 37 44:       or (3r)         r7, r9, r7
             0x00040bf4: 68 a3:       shl (2rus)      r6, r6, 0x4
             0x00040bf6: 7d a3:       shl (2rus)      r7, r7, 0x5
             0x00040bf8: 6a 44:       or (3r)         r10, r10, r6
             0x00040bfa: ff 17:       nop (0r)        
             0x00040bfc: 6b 44:       or (3r)         r10, r10, r7
             0x00040bfe: ff 17:       nop (0r)        
             0x00040c00: 15 91:       add (2rus)      r5, r5, 0x1
             0x00040c02: a1 8a:       ld8u (3r)       r6, r0[r5]
             0x00040c04: 15 99:       sub (2rus)      r5, r5, 0x1
             0x00040c06: b1 8a:       ld8u (3r)       r7, r0[r5]
             0x00040c08: 15 91:       add (2rus)      r5, r5, 0x1
             0x00040c0a: c5 8a:       ld8u (3r)       r8, r1[r5]
             0x00040c0c: 15 91:       add (2rus)      r5, r5, 0x1
             0x00040c0e: d5 8a:       ld8u (3r)       r9, r1[r5]
             0x00040c10: 42 1c:       sub (3r)        r8, r8, r6
             0x00040c12: 57 1c:       sub (3r)        r9, r9, r7
             0x00040c14: 68 97:       neg (2r)        r6, r8
             0x00040c16: 6d 97:       neg (2r)        r7, r9
             0x00040c18: 0c c5:       lss (3r)        r8, r3, r8
             0x00040c1a: 1d c5:       lss (3r)        r9, r3, r9
             0x00040c1c: ae c2:       lss (3r)        r6, r3, r6
             0x00040c1e: bf c2:       lss (3r)        r7, r3, r7
             0x00040c20: 22 44:       or (3r)         r6, r8, r6
             0x00040c22: 37 44:       or (3r)         r7, r9, r7
             0x00040c24: 6a a3:       shl (2rus)      r6, r6, 0x6
             0x00040c26: 7f a3:       shl (2rus)      r7, r7, 0x7
             0x00040c28: 6a 44:       or (3r)         r10, r10, r6
             0x00040c2a: ff 17:       nop (0r)        
             0x00040c2c: 6b 44:       or (3r)         r10, r10, r7
             0x00040c2e: ff 17:       nop (0r)        
             0x00040c30: 2b fd ec 8f: st8 (l3r)       r10, r2[r11]
             0x00040c34: 3d 92:       add (2rus)      r11, r11, 0x1
             0x00040c36: ff 17:       nop (0r)        
             0x00040c38: 64 c3:       lss (3r)        r6, r5, r4
             0x00040c3a: ff 17:       nop (0r)        
             0x00040c3c: 00 f0 b3 75: bt (lru6)       r6, -0x33 <computeloop>
             0x00040c40: 00 f0 40 69: ldc (lru6)      r5, 0x0
             0x00040c44: 00 f0 27 69: ldc (lru6)      r4, 0x27

<copyNewDataToOldBuffer>:
             0x00040c48: b1 fa e6 27: ldd (l4r)       r6, r7, r0[r5]
             0x00040c4c: b5 fa e6 17: std (l4r)       r6, r7, r1[r5]
             0x00040c50: 15 91:       add (2rus)      r5, r5, 0x1
             0x00040c52: ff 17:       nop (0r)        
             0x00040c54: b1 fa e6 27: ldd (l4r)       r6, r7, r0[r5]
             0x00040c58: b5 fa e6 17: std (l4r)       r6, r7, r1[r5]
             0x00040c5c: 15 91:       add (2rus)      r5, r5, 0x1
             0x00040c5e: ff 17:       nop (0r)        
             0x00040c60: b1 fa e6 27: ldd (l4r)       r6, r7, r0[r5]
             0x00040c64: b5 fa e6 17: std (l4r)       r6, r7, r1[r5]
             0x00040c68: 15 91:       add (2rus)      r5, r5, 0x1
             0x00040c6a: ff 17:       nop (0r)        
             0x00040c6c: b1 fa e6 27: ldd (l4r)       r6, r7, r0[r5]
             0x00040c70: b5 fa e6 17: std (l4r)       r6, r7, r1[r5]
             0x00040c74: 15 91:       add (2rus)      r5, r5, 0x1
             0x00040c76: 64 c3:       lss (3r)        r6, r5, r4
             0x00040c78: 00 f0 8d 75: bt (lru6)       r6, -0xd <copyNewDataToOldBuffer>
             0x00040c7c: 00 f0 82 5c: ldw (lru6)      r2, sp[0x2]
             0x00040c80: 00 f0 c3 5c: ldw (lru6)      r3, sp[0x3]
             0x00040c84: 00 f0 04 5d: ldw (lru6)      r4, sp[0x4]
             0x00040c88: 00 f0 45 5d: ldw (lru6)      r5, sp[0x5]
             0x00040c8c: 00 f0 86 5d: ldw (lru6)      r6, sp[0x6]
             0x00040c90: 00 f0 c7 5d: ldw (lru6)      r7, sp[0x7]
             0x00040c94: 00 f0 08 5e: ldw (lru6)      r8, sp[0x8]
             0x00040c98: 00 f0 49 5e: ldw (lru6)      r9, sp[0x9]
             0x00040c9c: 00 f0 8a 5e: ldw (lru6)      r10, sp[0xa]
             0x00040ca0: 00 f0 cb 5e: ldw (lru6)      r11, sp[0xb]
             0x00040ca4: 00 f0 cc 77: retsp (lu6)     0xc

<camCLK.ctor>:
             0x00040ca8: 00 f0 40 77: entsp (lu6)     0x0
             0x00040cac: 00 73:       bu (u6)         0x0 <.label25>
.label25     0x00040cae: 00 73:       bu (u6)         0x0 <.label26>
.label26     0x00040cb0: 00 f0 19 58: ldw (lru6)      r0, dp[0x19]
             0x00040cb4: 08 e8:       setc (ru6)      res[r0], 0x8
             0x00040cb6: 00 73:       bu (u6)         0x0 <.label27>
.label27     0x00040cb8: c0 77:       retsp (u6)      0x0
             0x00040cba: 00 00:       stw (2rus)      r0, r0[0x0]

<camCLK.dtor>:
             0x00040cbc: 00 f0 40 77: entsp (lu6)     0x0
             0x00040cc0: 00 73:       bu (u6)         0x0 <.label28>
.label28     0x00040cc2: 00 73:       bu (u6)         0x0 <.label29>
.label29     0x00040cc4: 00 f0 19 58: ldw (lru6)      r0, dp[0x19]
             0x00040cc8: 00 e8:       setc (ru6)      res[r0], 0x0
             0x00040cca: 00 73:       bu (u6)         0x0 <.label30>
.label30     0x00040ccc: c0 77:       retsp (u6)      0x0
             0x00040cce: 00 00:       stw (2rus)      r0, r0[0x0]

<sccb1CLK.ctor>:
             0x00040cd0: 00 f0 40 77: entsp (lu6)     0x0
             0x00040cd4: 00 73:       bu (u6)         0x0 <.label31>
.label31     0x00040cd6: 00 73:       bu (u6)         0x0 <.label32>
.label32     0x00040cd8: 00 f0 1a 58: ldw (lru6)      r0, dp[0x1a]
             0x00040cdc: 08 e8:       setc (ru6)      res[r0], 0x8
             0x00040cde: 00 73:       bu (u6)         0x0 <.label33>
.label33     0x00040ce0: c0 77:       retsp (u6)      0x0
             0x00040ce2: 00 00:       stw (2rus)      r0, r0[0x0]

<sccb1CLK.dtor>:
             0x00040ce4: 00 f0 40 77: entsp (lu6)     0x0
             0x00040ce8: 00 73:       bu (u6)         0x0 <.label34>
.label34     0x00040cea: 00 73:       bu (u6)         0x0 <.label35>
.label35     0x00040cec: 00 f0 1a 58: ldw (lru6)      r0, dp[0x1a]
             0x00040cf0: 00 e8:       setc (ru6)      res[r0], 0x0
             0x00040cf2: 00 73:       bu (u6)         0x0 <.label36>
.label36     0x00040cf4: c0 77:       retsp (u6)      0x0
             0x00040cf6: 00 00:       stw (2rus)      r0, r0[0x0]

<sccb2CLK.ctor>:
             0x00040cf8: 00 f0 40 77: entsp (lu6)     0x0
             0x00040cfc: 00 73:       bu (u6)         0x0 <.label37>
.label37     0x00040cfe: 00 73:       bu (u6)         0x0 <.label38>
.label38     0x00040d00: 00 f0 1b 58: ldw (lru6)      r0, dp[0x1b]
             0x00040d04: 08 e8:       setc (ru6)      res[r0], 0x8
             0x00040d06: 00 73:       bu (u6)         0x0 <.label39>
.label39     0x00040d08: c0 77:       retsp (u6)      0x0
             0x00040d0a: 00 00:       stw (2rus)      r0, r0[0x0]

<sccb2CLK.dtor>:
             0x00040d0c: 00 f0 40 77: entsp (lu6)     0x0
             0x00040d10: 00 73:       bu (u6)         0x0 <.label40>
.label40     0x00040d12: 00 73:       bu (u6)         0x0 <.label41>
.label41     0x00040d14: 00 f0 1b 58: ldw (lru6)      r0, dp[0x1b]
             0x00040d18: 00 e8:       setc (ru6)      res[r0], 0x0
             0x00040d1a: 00 73:       bu (u6)         0x0 <.label42>
.label42     0x00040d1c: c0 77:       retsp (u6)      0x0
             0x00040d1e: 00 00:       stw (2rus)      r0, r0[0x0]

<pclk1CLK.ctor>:
             0x00040d20: 00 f0 40 77: entsp (lu6)     0x0
             0x00040d24: 00 73:       bu (u6)         0x0 <.label43>
.label43     0x00040d26: 00 73:       bu (u6)         0x0 <.label44>
.label44     0x00040d28: 00 f0 1c 58: ldw (lru6)      r0, dp[0x1c]
             0x00040d2c: 08 e8:       setc (ru6)      res[r0], 0x8
             0x00040d2e: 00 73:       bu (u6)         0x0 <.label45>
.label45     0x00040d30: c0 77:       retsp (u6)      0x0
             0x00040d32: 00 00:       stw (2rus)      r0, r0[0x0]

<pclk1CLK.dtor>:
             0x00040d34: 00 f0 40 77: entsp (lu6)     0x0
             0x00040d38: 00 73:       bu (u6)         0x0 <.label46>
.label46     0x00040d3a: 00 73:       bu (u6)         0x0 <.label47>
.label47     0x00040d3c: 00 f0 1c 58: ldw (lru6)      r0, dp[0x1c]
             0x00040d40: 00 e8:       setc (ru6)      res[r0], 0x0
             0x00040d42: 00 73:       bu (u6)         0x0 <.label48>
.label48     0x00040d44: c0 77:       retsp (u6)      0x0
             0x00040d46: 00 00:       stw (2rus)      r0, r0[0x0]

<pclk2CLK.ctor>:
             0x00040d48: 00 f0 40 77: entsp (lu6)     0x0
             0x00040d4c: 00 73:       bu (u6)         0x0 <.label49>
.label49     0x00040d4e: 00 73:       bu (u6)         0x0 <.label50>
.label50     0x00040d50: 00 f0 1d 58: ldw (lru6)      r0, dp[0x1d]
             0x00040d54: 08 e8:       setc (ru6)      res[r0], 0x8
             0x00040d56: 00 73:       bu (u6)         0x0 <.label51>
.label51     0x00040d58: c0 77:       retsp (u6)      0x0
             0x00040d5a: 00 00:       stw (2rus)      r0, r0[0x0]

<pclk2CLK.dtor>:
             0x00040d5c: 00 f0 40 77: entsp (lu6)     0x0
             0x00040d60: 00 73:       bu (u6)         0x0 <.label52>
.label52     0x00040d62: 00 73:       bu (u6)         0x0 <.label53>
.label53     0x00040d64: 00 f0 1d 58: ldw (lru6)      r0, dp[0x1d]
             0x00040d68: 00 e8:       setc (ru6)      res[r0], 0x0
             0x00040d6a: 00 73:       bu (u6)         0x0 <.label54>
.label54     0x00040d6c: c0 77:       retsp (u6)      0x0
             0x00040d6e: 00 00:       stw (2rus)      r0, r0[0x0]

<camRESET.ctor>:
             0x00040d70: 00 f0 40 77: entsp (lu6)     0x0
             0x00040d74: 00 73:       bu (u6)         0x0 <.label55>
.label55     0x00040d76: 00 73:       bu (u6)         0x0 <.label56>
.label56     0x00040d78: 00 f0 1e 58: ldw (lru6)      r0, dp[0x1e]
             0x00040d7c: 08 e8:       setc (ru6)      res[r0], 0x8
             0x00040d7e: 00 f0 46 68: ldc (lru6)      r1, 0x6
             0x00040d82: d4 fe ec 0f: setclk (lr2r)   res[r0], r1
             0x00040d86: 00 73:       bu (u6)         0x0 <.label57>
.label57     0x00040d88: c0 77:       retsp (u6)      0x0
             0x00040d8a: 00 00:       stw (2rus)      r0, r0[0x0]

<camRESET.dtor>:
             0x00040d8c: 00 f0 40 77: entsp (lu6)     0x0
             0x00040d90: 00 73:       bu (u6)         0x0 <.label58>
.label58     0x00040d92: 00 73:       bu (u6)         0x0 <.label59>
.label59     0x00040d94: 00 f0 1e 58: ldw (lru6)      r0, dp[0x1e]
             0x00040d98: 00 e8:       setc (ru6)      res[r0], 0x0
             0x00040d9a: 00 73:       bu (u6)         0x0 <.label60>
.label60     0x00040d9c: c0 77:       retsp (u6)      0x0
             0x00040d9e: 00 00:       stw (2rus)      r0, r0[0x0]

<camSFIN.ctor>:
             0x00040da0: 00 f0 40 77: entsp (lu6)     0x0
             0x00040da4: 00 73:       bu (u6)         0x0 <.label61>
.label61     0x00040da6: 00 73:       bu (u6)         0x0 <.label62>
.label62     0x00040da8: 00 f0 1f 58: ldw (lru6)      r0, dp[0x1f]
             0x00040dac: 08 e8:       setc (ru6)      res[r0], 0x8
             0x00040dae: 00 f0 46 68: ldc (lru6)      r1, 0x6
             0x00040db2: d4 fe ec 0f: setclk (lr2r)   res[r0], r1
             0x00040db6: 00 73:       bu (u6)         0x0 <.label63>
.label63     0x00040db8: c0 77:       retsp (u6)      0x0
             0x00040dba: 00 00:       stw (2rus)      r0, r0[0x0]

<camSFIN.dtor>:
             0x00040dbc: 00 f0 40 77: entsp (lu6)     0x0
             0x00040dc0: 00 73:       bu (u6)         0x0 <.label64>
.label64     0x00040dc2: 00 73:       bu (u6)         0x0 <.label65>
.label65     0x00040dc4: 00 f0 1f 58: ldw (lru6)      r0, dp[0x1f]
             0x00040dc8: 00 e8:       setc (ru6)      res[r0], 0x0
             0x00040dca: 00 73:       bu (u6)         0x0 <.label66>
.label66     0x00040dcc: c0 77:       retsp (u6)      0x0
             0x00040dce: 00 00:       stw (2rus)      r0, r0[0x0]

<camSYNC.ctor>:
             0x00040dd0: 00 f0 40 77: entsp (lu6)     0x0
             0x00040dd4: 00 73:       bu (u6)         0x0 <.label67>
.label67     0x00040dd6: 00 73:       bu (u6)         0x0 <.label68>
.label68     0x00040dd8: 00 f0 20 58: ldw (lru6)      r0, dp[0x20]
             0x00040ddc: 08 e8:       setc (ru6)      res[r0], 0x8
             0x00040dde: 00 f0 46 68: ldc (lru6)      r1, 0x6
             0x00040de2: d4 fe ec 0f: setclk (lr2r)   res[r0], r1
             0x00040de6: 00 73:       bu (u6)         0x0 <.label69>
.label69     0x00040de8: c0 77:       retsp (u6)      0x0
             0x00040dea: 00 00:       stw (2rus)      r0, r0[0x0]

<camSYNC.dtor>:
             0x00040dec: 00 f0 40 77: entsp (lu6)     0x0
             0x00040df0: 00 73:       bu (u6)         0x0 <.label70>
.label70     0x00040df2: 00 73:       bu (u6)         0x0 <.label71>
.label71     0x00040df4: 00 f0 20 58: ldw (lru6)      r0, dp[0x20]
             0x00040df8: 00 e8:       setc (ru6)      res[r0], 0x0
             0x00040dfa: 00 73:       bu (u6)         0x0 <.label72>
.label72     0x00040dfc: c0 77:       retsp (u6)      0x0
             0x00040dfe: 00 00:       stw (2rus)      r0, r0[0x0]

<cam1XCLK.ctor>:
             0x00040e00: 00 f0 40 77: entsp (lu6)     0x0
             0x00040e04: 00 73:       bu (u6)         0x0 <.label73>
.label73     0x00040e06: 00 73:       bu (u6)         0x0 <.label74>
.label74     0x00040e08: 00 f0 21 58: ldw (lru6)      r0, dp[0x21]
             0x00040e0c: 08 e8:       setc (ru6)      res[r0], 0x8
             0x00040e0e: 00 f0 46 68: ldc (lru6)      r1, 0x6
             0x00040e12: d4 fe ec 0f: setclk (lr2r)   res[r0], r1
             0x00040e16: 00 73:       bu (u6)         0x0 <.label75>
.label75     0x00040e18: c0 77:       retsp (u6)      0x0
             0x00040e1a: 00 00:       stw (2rus)      r0, r0[0x0]

<cam1XCLK.dtor>:
             0x00040e1c: 00 f0 40 77: entsp (lu6)     0x0
             0x00040e20: 00 73:       bu (u6)         0x0 <.label76>
.label76     0x00040e22: 00 73:       bu (u6)         0x0 <.label77>
.label77     0x00040e24: 00 f0 21 58: ldw (lru6)      r0, dp[0x21]
             0x00040e28: 00 e8:       setc (ru6)      res[r0], 0x0
             0x00040e2a: 00 73:       bu (u6)         0x0 <.label78>
.label78     0x00040e2c: c0 77:       retsp (u6)      0x0
             0x00040e2e: 00 00:       stw (2rus)      r0, r0[0x0]

<cam1PCLK.ctor>:
             0x00040e30: 00 f0 40 77: entsp (lu6)     0x0
             0x00040e34: 00 73:       bu (u6)         0x0 <.label79>
.label79     0x00040e36: 00 73:       bu (u6)         0x0 <.label80>
.label80     0x00040e38: 00 f0 22 58: ldw (lru6)      r0, dp[0x22]
             0x00040e3c: 08 e8:       setc (ru6)      res[r0], 0x8
             0x00040e3e: 00 f0 46 68: ldc (lru6)      r1, 0x6
             0x00040e42: d4 fe ec 0f: setclk (lr2r)   res[r0], r1
             0x00040e46: 00 73:       bu (u6)         0x0 <.label81>
.label81     0x00040e48: c0 77:       retsp (u6)      0x0
             0x00040e4a: 00 00:       stw (2rus)      r0, r0[0x0]

<cam1PCLK.dtor>:
             0x00040e4c: 00 f0 40 77: entsp (lu6)     0x0
             0x00040e50: 00 73:       bu (u6)         0x0 <.label82>
.label82     0x00040e52: 00 73:       bu (u6)         0x0 <.label83>
.label83     0x00040e54: 00 f0 22 58: ldw (lru6)      r0, dp[0x22]
             0x00040e58: 00 e8:       setc (ru6)      res[r0], 0x0
             0x00040e5a: 00 73:       bu (u6)         0x0 <.label84>
.label84     0x00040e5c: c0 77:       retsp (u6)      0x0
             0x00040e5e: 00 00:       stw (2rus)      r0, r0[0x0]

<cam1SCL.ctor>:
             0x00040e60: 00 f0 40 77: entsp (lu6)     0x0
             0x00040e64: 00 73:       bu (u6)         0x0 <.label85>
.label85     0x00040e66: 00 73:       bu (u6)         0x0 <.label86>
.label86     0x00040e68: 00 f0 23 58: ldw (lru6)      r0, dp[0x23]
             0x00040e6c: 08 e8:       setc (ru6)      res[r0], 0x8
             0x00040e6e: 00 f0 46 68: ldc (lru6)      r1, 0x6
             0x00040e72: d4 fe ec 0f: setclk (lr2r)   res[r0], r1
             0x00040e76: 00 73:       bu (u6)         0x0 <.label87>
.label87     0x00040e78: c0 77:       retsp (u6)      0x0
             0x00040e7a: 00 00:       stw (2rus)      r0, r0[0x0]

<cam1SCL.dtor>:
             0x00040e7c: 00 f0 40 77: entsp (lu6)     0x0
             0x00040e80: 00 73:       bu (u6)         0x0 <.label88>
.label88     0x00040e82: 00 73:       bu (u6)         0x0 <.label89>
.label89     0x00040e84: 00 f0 23 58: ldw (lru6)      r0, dp[0x23]
             0x00040e88: 00 e8:       setc (ru6)      res[r0], 0x0
             0x00040e8a: 00 73:       bu (u6)         0x0 <.label90>
.label90     0x00040e8c: c0 77:       retsp (u6)      0x0
             0x00040e8e: 00 00:       stw (2rus)      r0, r0[0x0]

<cam1SDA.ctor>:
             0x00040e90: 00 f0 40 77: entsp (lu6)     0x0
             0x00040e94: 00 73:       bu (u6)         0x0 <.label91>
.label91     0x00040e96: 00 73:       bu (u6)         0x0 <.label92>
.label92     0x00040e98: 00 f0 24 58: ldw (lru6)      r0, dp[0x24]
             0x00040e9c: 08 e8:       setc (ru6)      res[r0], 0x8
             0x00040e9e: 00 f0 46 68: ldc (lru6)      r1, 0x6
             0x00040ea2: d4 fe ec 0f: setclk (lr2r)   res[r0], r1
             0x00040ea6: 00 73:       bu (u6)         0x0 <.label93>
.label93     0x00040ea8: c0 77:       retsp (u6)      0x0
             0x00040eaa: 00 00:       stw (2rus)      r0, r0[0x0]

<cam1SDA.dtor>:
             0x00040eac: 00 f0 40 77: entsp (lu6)     0x0
             0x00040eb0: 00 73:       bu (u6)         0x0 <.label94>
.label94     0x00040eb2: 00 73:       bu (u6)         0x0 <.label95>
.label95     0x00040eb4: 00 f0 24 58: ldw (lru6)      r0, dp[0x24]
             0x00040eb8: 00 e8:       setc (ru6)      res[r0], 0x0
             0x00040eba: 00 73:       bu (u6)         0x0 <.label96>
.label96     0x00040ebc: c0 77:       retsp (u6)      0x0
             0x00040ebe: 00 00:       stw (2rus)      r0, r0[0x0]

<cam1DATA.ctor>:
             0x00040ec0: 00 f0 40 77: entsp (lu6)     0x0
             0x00040ec4: 00 73:       bu (u6)         0x0 <.label97>
.label97     0x00040ec6: 00 73:       bu (u6)         0x0 <.label98>
.label98     0x00040ec8: 00 f0 25 58: ldw (lru6)      r0, dp[0x25]
             0x00040ecc: 08 e8:       setc (ru6)      res[r0], 0x8
             0x00040ece: 80 f0 0f e8: setc (lru6)     res[r0], 0x200f
             0x00040ed2: 60 68:       ldc (ru6)       r1, 0x20
             0x00040ed4: d4 fe ec 27: settw (lr2r)    res[r0], r1
             0x00040ed8: 00 f0 46 68: ldc (lru6)      r1, 0x6
             0x00040edc: d4 fe ec 0f: setclk (lr2r)   res[r0], r1
             0x00040ee0: 00 73:       bu (u6)         0x0 <.label99>
.label99     0x00040ee2: c0 77:       retsp (u6)      0x0

<cam1DATA.dtor>:
             0x00040ee4: 00 f0 40 77: entsp (lu6)     0x0
             0x00040ee8: 00 73:       bu (u6)         0x0 <.label100>
.label100    0x00040eea: 00 73:       bu (u6)         0x0 <.label101>
.label101    0x00040eec: 00 f0 25 58: ldw (lru6)      r0, dp[0x25]
             0x00040ef0: 00 e8:       setc (ru6)      res[r0], 0x0
             0x00040ef2: 00 73:       bu (u6)         0x0 <.label102>
.label102    0x00040ef4: c0 77:       retsp (u6)      0x0
             0x00040ef6: 00 00:       stw (2rus)      r0, r0[0x0]

<cam2XCLK.ctor>:
             0x00040ef8: 00 f0 40 77: entsp (lu6)     0x0
             0x00040efc: 00 73:       bu (u6)         0x0 <.label103>
.label103    0x00040efe: 00 73:       bu (u6)         0x0 <.label104>
.label104    0x00040f00: 00 f0 26 58: ldw (lru6)      r0, dp[0x26]
             0x00040f04: 08 e8:       setc (ru6)      res[r0], 0x8
             0x00040f06: 00 f0 46 68: ldc (lru6)      r1, 0x6
             0x00040f0a: d4 fe ec 0f: setclk (lr2r)   res[r0], r1
             0x00040f0e: 00 73:       bu (u6)         0x0 <.label105>
.label105    0x00040f10: c0 77:       retsp (u6)      0x0
             0x00040f12: 00 00:       stw (2rus)      r0, r0[0x0]

<cam2XCLK.dtor>:
             0x00040f14: 00 f0 40 77: entsp (lu6)     0x0
             0x00040f18: 00 73:       bu (u6)         0x0 <.label106>
.label106    0x00040f1a: 00 73:       bu (u6)         0x0 <.label107>
.label107    0x00040f1c: 00 f0 26 58: ldw (lru6)      r0, dp[0x26]
             0x00040f20: 00 e8:       setc (ru6)      res[r0], 0x0
             0x00040f22: 00 73:       bu (u6)         0x0 <.label108>
.label108    0x00040f24: c0 77:       retsp (u6)      0x0
             0x00040f26: 00 00:       stw (2rus)      r0, r0[0x0]

<cam2PCLK.ctor>:
             0x00040f28: 00 f0 40 77: entsp (lu6)     0x0
             0x00040f2c: 00 73:       bu (u6)         0x0 <.label109>
.label109    0x00040f2e: 00 73:       bu (u6)         0x0 <.label110>
.label110    0x00040f30: 00 f0 27 58: ldw (lru6)      r0, dp[0x27]
             0x00040f34: 08 e8:       setc (ru6)      res[r0], 0x8
             0x00040f36: 00 f0 46 68: ldc (lru6)      r1, 0x6
             0x00040f3a: d4 fe ec 0f: setclk (lr2r)   res[r0], r1
             0x00040f3e: 00 73:       bu (u6)         0x0 <.label111>
.label111    0x00040f40: c0 77:       retsp (u6)      0x0
             0x00040f42: 00 00:       stw (2rus)      r0, r0[0x0]

<cam2PCLK.dtor>:
             0x00040f44: 00 f0 40 77: entsp (lu6)     0x0
             0x00040f48: 00 73:       bu (u6)         0x0 <.label112>
.label112    0x00040f4a: 00 73:       bu (u6)         0x0 <.label113>
.label113    0x00040f4c: 00 f0 27 58: ldw (lru6)      r0, dp[0x27]
             0x00040f50: 00 e8:       setc (ru6)      res[r0], 0x0
             0x00040f52: 00 73:       bu (u6)         0x0 <.label114>
.label114    0x00040f54: c0 77:       retsp (u6)      0x0
             0x00040f56: 00 00:       stw (2rus)      r0, r0[0x0]

<cam2SCL.ctor>:
             0x00040f58: 00 f0 40 77: entsp (lu6)     0x0
             0x00040f5c: 00 73:       bu (u6)         0x0 <.label115>
.label115    0x00040f5e: 00 73:       bu (u6)         0x0 <.label116>
.label116    0x00040f60: 00 f0 28 58: ldw (lru6)      r0, dp[0x28]
             0x00040f64: 08 e8:       setc (ru6)      res[r0], 0x8
             0x00040f66: 00 f0 46 68: ldc (lru6)      r1, 0x6
             0x00040f6a: d4 fe ec 0f: setclk (lr2r)   res[r0], r1
             0x00040f6e: 00 73:       bu (u6)         0x0 <.label117>
.label117    0x00040f70: c0 77:       retsp (u6)      0x0
             0x00040f72: 00 00:       stw (2rus)      r0, r0[0x0]

<cam2SCL.dtor>:
             0x00040f74: 00 f0 40 77: entsp (lu6)     0x0
             0x00040f78: 00 73:       bu (u6)         0x0 <.label118>
.label118    0x00040f7a: 00 73:       bu (u6)         0x0 <.label119>
.label119    0x00040f7c: 00 f0 28 58: ldw (lru6)      r0, dp[0x28]
             0x00040f80: 00 e8:       setc (ru6)      res[r0], 0x0
             0x00040f82: 00 73:       bu (u6)         0x0 <.label120>
.label120    0x00040f84: c0 77:       retsp (u6)      0x0
             0x00040f86: 00 00:       stw (2rus)      r0, r0[0x0]

<cam2SDA.ctor>:
             0x00040f88: 00 f0 40 77: entsp (lu6)     0x0
             0x00040f8c: 00 73:       bu (u6)         0x0 <.label121>
.label121    0x00040f8e: 00 73:       bu (u6)         0x0 <.label122>
.label122    0x00040f90: 00 f0 29 58: ldw (lru6)      r0, dp[0x29]
             0x00040f94: 08 e8:       setc (ru6)      res[r0], 0x8
             0x00040f96: 00 f0 46 68: ldc (lru6)      r1, 0x6
             0x00040f9a: d4 fe ec 0f: setclk (lr2r)   res[r0], r1
             0x00040f9e: 00 73:       bu (u6)         0x0 <.label123>
.label123    0x00040fa0: c0 77:       retsp (u6)      0x0
             0x00040fa2: 00 00:       stw (2rus)      r0, r0[0x0]

<cam2SDA.dtor>:
             0x00040fa4: 00 f0 40 77: entsp (lu6)     0x0
             0x00040fa8: 00 73:       bu (u6)         0x0 <.label124>
.label124    0x00040faa: 00 73:       bu (u6)         0x0 <.label125>
.label125    0x00040fac: 00 f0 29 58: ldw (lru6)      r0, dp[0x29]
             0x00040fb0: 00 e8:       setc (ru6)      res[r0], 0x0
             0x00040fb2: 00 73:       bu (u6)         0x0 <.label126>
.label126    0x00040fb4: c0 77:       retsp (u6)      0x0
             0x00040fb6: 00 00:       stw (2rus)      r0, r0[0x0]

<cam2DATA.ctor>:
             0x00040fb8: 00 f0 40 77: entsp (lu6)     0x0
             0x00040fbc: 00 73:       bu (u6)         0x0 <.label127>
.label127    0x00040fbe: 00 73:       bu (u6)         0x0 <.label128>
.label128    0x00040fc0: 00 f0 2a 58: ldw (lru6)      r0, dp[0x2a]
             0x00040fc4: 08 e8:       setc (ru6)      res[r0], 0x8
             0x00040fc6: 80 f0 0f e8: setc (lru6)     res[r0], 0x200f
             0x00040fca: 60 68:       ldc (ru6)       r1, 0x20
             0x00040fcc: d4 fe ec 27: settw (lr2r)    res[r0], r1
             0x00040fd0: 00 f0 46 68: ldc (lru6)      r1, 0x6
             0x00040fd4: d4 fe ec 0f: setclk (lr2r)   res[r0], r1
             0x00040fd8: 00 73:       bu (u6)         0x0 <.label129>
.label129    0x00040fda: c0 77:       retsp (u6)      0x0

<cam2DATA.dtor>:
             0x00040fdc: 00 f0 40 77: entsp (lu6)     0x0
             0x00040fe0: 00 73:       bu (u6)         0x0 <.label130>
.label130    0x00040fe2: 00 73:       bu (u6)         0x0 <.label131>
.label131    0x00040fe4: 00 f0 2a 58: ldw (lru6)      r0, dp[0x2a]
             0x00040fe8: 00 e8:       setc (ru6)      res[r0], 0x0
             0x00040fea: 00 73:       bu (u6)         0x0 <.label132>
.label132    0x00040fec: c0 77:       retsp (u6)      0x0

<main>:
             0x00040fee: 42 77:       entsp (u6)      0x2
.label133    0x00040ff0: c2 86:       getr (rus)      r0, 0x2
             0x00040ff2: 02 74:       bt (ru6)        r0, -0x2 <.label133>
             0x00040ff4: 78 f0 02 68: ldc (lru6)      r0, 0x1e02
             0x00040ff8: 7c f0 c2 6a: ldc (lru6)      r11, 0x1f02
             0x00040ffc: 5c 17:       setd (r2r)      res[r0], r11
             0x00040ffe: d1 4e:       outct (rus)     res[r0], 0x1
             0x00041000: 5c bf:       testct (2r)     r11, res[r0]
             0x00041002: c2 7a:       bf (ru6)        r11, 0x2 <.label134>
             0x00041004: d1 ce:       chkct (rus)     res[r0], 0x1
             0x00041006: d1 4e:       outct (rus)     res[r0], 0x1
.label134    0x00041008: 5c 8f:       int (2r)        r11, res[r0]
             0x0004100a: d1 ce:       chkct (rus)     res[r0], 0x1
             0x0004100c: 05 68:       ldc (ru6)       r0, 0x5
             0x0004100e: 00 f0 59 d0: bl (lu10)       0x59 <delay_ticks>
             0x00041012: 00 f0 40 7f: ldaw (lu6)      r11, cp[0x0]
             0x00041016: 00 68:       ldc (ru6)       r0, 0x0
             0x00041018: 60 68:       ldc (ru6)       r1, 0x20
             0x0004101a: 02 69:       ldc (ru6)       r4, 0x2
.label137    0x0004101c: ac 09:       ldw (2rus)      r2, r11[0x0]
             0x0004101e: b8 ac:       shr (2rus)      r3, r2, 0x8
             0x00041020: 38 47:       zext (rus)      r2, 0x8
             0x00041022: 58 30:       eq (3r)         r5, r2, r0
             0x00041024: 47 79:       bf (ru6)        r5, 0x7 <.label135>
             0x00041026: a8 a4:       shl (2rus)      r2, r2, 0x8
             0x00041028: 68 42:       or (3r)         r2, r2, r4
             0x0004102a: bc a4:       shl (2rus)      r3, r3, 0x8
             0x0004102c: 7c 42:       or (3r)         r3, r3, r4
             0x0004102e: de 16:       setd (r2r)      res[r2], r3
             0x00041030: 7c 94:       add (2rus)      r11, r11, 0x4
             0x00041032: 03 73:       bu (u6)         0x3 <.label136>
.label135    0x00041034: a0 a4:       shl (2rus)      r2, r0, 0x8
             0x00041036: 68 42:       or (3r)         r2, r2, r4
             0x00041038: e2 17:       freer (1r)      res[r2]
.label136    0x0004103a: 01 90:       add (2rus)      r0, r0, 0x1
             0x0004103c: 21 30:       eq (3r)         r2, r0, r1
             0x0004103e: 92 7c:       bf (ru6)        r2, -0x12 <.label137>
             0x00041040: 00 f0 36 6c: ldw (lru6)      r0, cp[0x36]
             0x00041044: 01 f0 7c d7: bl (lu10)       -0x77c <__main__main_tile_1>
             0x00041048: 00 68:       ldc (ru6)       r0, 0x0
             0x0004104a: c2 77:       retsp (u6)      0x2

<_get_cmdline>:
             0x0004104c: 00 f0 40 77: entsp (lu6)     0x0
             0x00041050: 24 90:       add (2rus)      r2, r1, 0x0
             0x00041052: 10 90:       add (2rus)      r1, r0, 0x0
             0x00041054: 0d 68:       ldc (ru6)       r0, 0xd
             0x00041056: 00 f0 3b d9: ldap (lu10)     r11, 0x13b <_DoSyscall>
             0x0004105a: fb 27:       bau (1r)        r11

<__libc_done>:
             0x0004105c: 00 f0 42 77: entsp (lu6)     0x2
             0x00041060: 00 68:       ldc (ru6)       r0, 0x0
             0x00041062: 10 90:       add (2rus)      r1, r0, 0x0
             0x00041064: 00 f0 3c d1: bl (lu10)       0x13c <__call_exitprocs>
             0x00041068: 00 f0 40 d1: bl (lu10)       0x140 <_cleanup>
             0x0004106c: 02 f0 7a d0: bl (lu10)       0x87a <.label138>
             0x00041070: 00 f0 42 d1: bl (lu10)       0x142 <_done>

<_exit_unlocked>:
             0x00041074: 00 f0 44 77: entsp (lu6)     0x4
             0x00041078: 02 55:       stw (ru6)       r4, sp[0x2]
             0x0004107a: 40 90:       add (2rus)      r4, r0, 0x0
             0x0004107c: 40 68:       ldc (ru6)       r1, 0x0
             0x0004107e: 00 f0 2f d1: bl (lu10)       0x12f <__call_exitprocs>
             0x00041082: 00 f0 33 d1: bl (lu10)       0x133 <_cleanup>
             0x00041086: 02 f0 6d d0: bl (lu10)       0x86d <.label138>
             0x0004108a: c0 90:       add (2rus)      r0, r4, 0x0
             0x0004108c: 00 f0 3c d1: bl (lu10)       0x13c <_exit>

<_DoException>:
             0x00041090: 00 f0 40 77: entsp (lu6)     0x0
             0x00041094: ed 07:       clre (0r)       
             0x00041096: ec 07:       waiteu (0r)     

<memset>:
             0x00041098: 00 f0 c2 6e: ldw (lru6)      r11, cp[0x2]
             0x0004109c: ff 17:       nop (0r)        
             0x0004109e: fb 27:       bau (1r)        r11

<__init_threadlocal_timer>:
             0x000410a0: 00 f0 40 77: entsp (lu6)     0x0
             0x000410a4: c9 86:       getr (rus)      r2, 0x1
             0x000410a6: 00 f0 40 60: ldaw (lru6)     r1, dp[0x0]
             0x000410aa: ee 17:       get (0r)        r11, id
             0x000410ac: a7 fc ec 07: stw (l3r)       r2, r1[r11]
             0x000410b0: c0 77:       retsp (u6)      0x0
             0x000410b2: 00 00:       stw (2rus)      r0, r0[0x0]

<__free_threadlocal_timer>:
.label309    0x000410b4: 00 f0 40 77: entsp (lu6)     0x0
             0x000410b8: 00 f0 80 60: ldaw (lru6)     r2, dp[0x0]
             0x000410bc: ee 17:       get (0r)        r11, id
             0x000410be: ab 4c:       ldw (3r)        r2, r2[r11]
             0x000410c0: e2 17:       freer (1r)      res[r2]
             0x000410c2: c0 77:       retsp (u6)      0x0

<delay_ticks>:
             0x000410c4: 00 f0 40 77: entsp (lu6)     0x0
             0x000410c8: e1 8f:       gettime (1r)    r1
             0x000410ca: ee 17:       get (0r)        r11, id
             0x000410cc: 00 f0 80 60: ldaw (lru6)     r2, dp[0x0]
             0x000410d0: ab 4c:       ldw (3r)        r2, r2[r11]
             0x000410d2: 30 f8 ec 97: ashr (l2rus)    r3, r0, 0x20
             0x000410d6: c6 78:       bf (ru6)        r3, 0x6 <.label139>
             0x000410d8: 01 f0 c8 6c: ldw (lru6)      r3, cp[0x48]
             0x000410dc: 37 10:       add (3r)        r3, r1, r3
             0x000410de: de 16:       setd (r2r)      res[r2], r3
             0x000410e0: 89 e8:       setc (ru6)      res[r2], 0x9
             0x000410e2: ce b6:       in (2r)         r3, res[r2]
.label139    0x000410e4: 04 10:       add (3r)        r0, r1, r0
             0x000410e6: d2 16:       setd (r2r)      res[r2], r0
             0x000410e8: 89 e8:       setc (ru6)      res[r2], 0x9
             0x000410ea: c2 b6:       in (2r)         r0, res[r2]
             0x000410ec: c0 77:       retsp (u6)      0x0
             0x000410ee: 00 00:       stw (2rus)      r0, r0[0x0]

<puts>:
             0x000410f0: 00 f0 4c 77: entsp (lu6)     0xc
             0x000410f4: 44 fb ec f7: std (l2rus)     r5, r4, sp[0x4]
             0x000410f8: 8a 55:       stw (ru6)       r6, sp[0xa]
             0x000410fa: 40 90:       add (2rus)      r4, r0, 0x0
             0x000410fc: 00 f0 d0 d1: bl (lu10)       0x1d0 <strlen>
             0x00041100: 01 55:       stw (ru6)       r4, sp[0x1]
             0x00041102: 02 54:       stw (ru6)       r0, sp[0x2]
             0x00041104: 00 f0 78 7f: ldaw (lu6)      r11, cp[0x38]
             0x00041108: c3 56:       stw (ru6)       r11, sp[0x3]
             0x0004110a: d5 a6:       mkmsk (rus)     r1, 0x1
             0x0004110c: 44 54:       stw (ru6)       r1, sp[0x4]
             0x0004110e: 01 90:       add (2rus)      r0, r0, 0x1
             0x00041110: 07 54:       stw (ru6)       r0, sp[0x7]
             0x00041112: 01 64:       ldaw (ru6)      r0, sp[0x1]
             0x00041114: 05 54:       stw (ru6)       r0, sp[0x5]
             0x00041116: 42 69:       ldc (ru6)       r5, 0x2
             0x00041118: 46 55:       stw (ru6)       r5, sp[0x6]
             0x0004111a: a9 f2 18 58: ldw (lru6)      r0, dp[0xaa58]
             0x0004111e: 02 70:       bt (ru6)        r0, 0x2 <.label140>
             0x00041120: 00 f0 54 d1: bl (lu10)       0x154 <__sinit>
.label140    0x00041124: 00 f0 11 58: ldw (lru6)      r0, dp[0x11]
             0x00041128: 8d 69:       ldc (ru6)       r6, 0xd
             0x0004112a: 52 8a:       ld8u (3r)       r1, r0[r6]
             0x0004112c: 55 3a:       and (3r)        r1, r1, r5
             0x0004112e: 47 70:       bt (ru6)        r1, 0x7 <.label141>
             0x00041130: 01 f0 54 68: ldc (lru6)      r1, 0x54
             0x00041134: 01 10:       add (3r)        r0, r0, r1
             0x00041136: 00 f0 13 d1: bl (lu10)       0x113 <__lock_recursive_acquire>
             0x0004113a: 00 f0 11 58: ldw (lru6)      r0, dp[0x11]
.label141    0x0004113e: 45 64:       ldaw (ru6)      r1, sp[0x5]
             0x00041140: 00 f0 b8 d1: bl (lu10)       0x1b8 <__sfvwrite>
             0x00041144: 40 90:       add (2rus)      r4, r0, 0x0
             0x00041146: 00 f0 11 58: ldw (lru6)      r0, dp[0x11]
             0x0004114a: 52 8a:       ld8u (3r)       r1, r0[r6]
             0x0004114c: 55 3a:       and (3r)        r1, r1, r5
             0x0004114e: 45 70:       bt (ru6)        r1, 0x5 <.label142>
             0x00041150: 01 f0 54 68: ldc (lru6)      r1, 0x54
             0x00041154: 01 10:       add (3r)        r0, r0, r1
             0x00041156: 00 f0 21 d1: bl (lu10)       0x121 <__lock_recursive_release>
.label142    0x0004115a: 02 71:       bt (ru6)        r4, 0x2 <.label143>
             0x0004115c: 0a 68:       ldc (ru6)       r0, 0xa
             0x0004115e: 01 73:       bu (u6)         0x1 <.label144>
.label143    0x00041160: d0 a6:       mkmsk (rus)     r0, 0x20
.label144    0x00041162: 8a 5d:       ldw (ru6)       r6, sp[0xa]
             0x00041164: 44 fb ec ef: ldd (l2rus)     r5, r4, sp[0x4]
             0x00041168: cc 77:       retsp (u6)      0xc
             0x0004116a: 00 00:       stw (2rus)      r0, r0[0x0]

<configure_in_port>:
             0x0004116c: 00 f0 44 77: entsp (lu6)     0x4
             0x00041170: 05 f9 ec f7: std (l2rus)     r5, r4, sp[0x1]
             0x00041174: 44 90:       add (2rus)      r4, r1, 0x0
             0x00041176: 50 90:       add (2rus)      r5, r0, 0x0
             0x00041178: 40 f1 47 e9: setc (lru6)     res[r5], 0x5007
             0x0004117c: 00 f0 10 d3: bl (lu10)       0x310 <__set_port_in>
             0x00041180: d1 ff ec 0f: setclk (lr2r)   res[r5], r4
             0x00041184: c0 f0 47 e9: setc (lru6)     res[r5], 0x3007
             0x00041188: 57 e9:       setc (ru6)      res[r5], 0x17
             0x0004118a: 05 f9 ec ef: ldd (l2rus)     r5, r4, sp[0x1]
             0x0004118e: c4 77:       retsp (u6)      0x4

<configure_port_clock_output>:
             0x00041190: 00 f0 40 77: entsp (lu6)     0x0
             0x00041194: d4 fe ec 0f: setclk (lr2r)   res[r0], r1
             0x00041198: 40 f1 0f e8: setc (lru6)     res[r0], 0x500f
             0x0004119c: c0 77:       retsp (u6)      0x0
             0x0004119e: 00 00:       stw (2rus)      r0, r0[0x0]

<configure_clock_src>:
             0x000411a0: 00 f0 40 77: entsp (lu6)     0x0
             0x000411a4: d4 fe ec 0f: setclk (lr2r)   res[r0], r1
             0x000411a8: 40 68:       ldc (ru6)       r1, 0x0
             0x000411aa: d4 16:       setd (r2r)      res[r0], r1
             0x000411ac: c0 77:       retsp (u6)      0x0
             0x000411ae: 00 00:       stw (2rus)      r0, r0[0x0]

<configure_clock_rate>:
             0x000411b0: 00 f0 48 77: entsp (lu6)     0x8
             0x000411b4: 05 f9 ec f7: std (l2rus)     r5, r4, sp[0x1]
             0x000411b8: 2e f9 ec f7: std (l2rus)     r7, r6, sp[0x2]
             0x000411bc: 06 56:       stw (ru6)       r8, sp[0x6]
             0x000411be: 58 90:       add (2rus)      r5, r2, 0x0
             0x000411c0: 64 90:       add (2rus)      r6, r1, 0x0
             0x000411c2: 40 90:       add (2rus)      r4, r0, 0x0
             0x000411c4: e6 4f:       ecallf (1r)     r6
             0x000411c6: e5 4f:       ecallf (1r)     r5
             0x000411c8: c0 69:       ldc (ru6)       r7, 0x0
             0x000411ca: 01 f0 02 6c: ldw (lru6)      r0, cp[0x42]
             0x000411ce: c8 f8 1f 03: lmul (l6r)      r0, r1, r6, r0, r7, r7
             0x000411d2: 00 f0 8e 58: ldw (lru6)      r2, dp[0xe]
             0x000411d6: 79 fa bf 03: lmul (l6r)      r3, r11, r2, r5, r7, r7
             0x000411da: 03 f8 ec 0f: xor (l3r)       r0, r0, r3
             0x000411de: 97 fc ec 0f: xor (l3r)       r1, r1, r11
             0x000411e2: 04 40:       or (3r)         r0, r1, r0
             0x000411e4: 05 70:       bt (ru6)        r0, 0x5 <.label145>
             0x000411e6: d1 a6:       mkmsk (rus)     r0, 0x1
             0x000411e8: 90 ff ec 0f: setclk (lr2r)   res[r4], r0
             0x000411ec: dc 17:       setd (r2r)      res[r4], r7
             0x000411ee: 19 73:       bu (u6)         0x19 <.label146>
.label145    0x000411f0: c8 90:       add (2rus)      r0, r6, 0x0
             0x000411f2: d4 90:       add (2rus)      r1, r5, 0x0
             0x000411f4: 00 f0 1c d0: bl (lu10)       0x1c <find_divide_exact>
             0x000411f8: 50 a7:       mkmsk (rus)     r8, 0x20
             0x000411fa: 90 34:       eq (3r)         r1, r0, r8
             0x000411fc: 45 70:       bt (ru6)        r1, 0x5 <.label147>
             0x000411fe: d5 a6:       mkmsk (rus)     r1, 0x1
             0x00041200: 94 ff ec 0f: setclk (lr2r)   res[r4], r1
             0x00041204: 90 17:       setd (r2r)      res[r4], r0
             0x00041206: 0d 73:       bu (u6)         0xd <.label146>
.label147    0x00041208: 00 f0 8f 58: ldw (lru6)      r2, dp[0xf]
             0x0004120c: c8 90:       add (2rus)      r0, r6, 0x0
             0x0004120e: d4 90:       add (2rus)      r1, r5, 0x0
             0x00041210: 00 f0 0e d0: bl (lu10)       0xe <find_divide_exact>
             0x00041214: 90 34:       eq (3r)         r1, r0, r8
             0x00041216: f1 4f:       ecallt (1r)     r1
             0x00041218: 04 f0 41 68: ldc (lru6)      r1, 0x101
             0x0004121c: 94 ff ec 0f: setclk (lr2r)   res[r4], r1
             0x00041220: 90 17:       setd (r2r)      res[r4], r0
.label146    0x00041222: 06 5e:       ldw (ru6)       r8, sp[0x6]
             0x00041224: 2e f9 ec ef: ldd (l2rus)     r7, r6, sp[0x2]
             0x00041228: 05 f9 ec ef: ldd (l2rus)     r5, r4, sp[0x1]
             0x0004122c: c8 77:       retsp (u6)      0x8
             0x0004122e: 00 00:       stw (2rus)      r0, r0[0x0]

<find_divide_exact>:
             0x00041230: 00 f0 48 77: entsp (lu6)     0x8
             0x00041234: 05 f9 ec f7: std (l2rus)     r5, r4, sp[0x1]
             0x00041238: 2e f9 ec f7: std (l2rus)     r7, r6, sp[0x2]
             0x0004123c: 06 56:       stw (ru6)       r8, sp[0x6]
             0x0004123e: 50 90:       add (2rus)      r5, r0, 0x0
             0x00041240: c0 69:       ldc (ru6)       r7, 0x0
             0x00041242: 69 f8 4f 03: lmul (l6r)      r6, r4, r2, r1, r7, r7
             0x00041246: 01 f0 04 6e: ldw (lru6)      r8, cp[0x44]
             0x0004124a: 74 fd 2f 03: lmul (l6r)      r3, r2, r5, r8, r7, r7
             0x0004124e: c0 90:       add (2rus)      r0, r4, 0x0
             0x00041250: d8 90:       add (2rus)      r1, r6, 0x0
             0x00041252: 00 f0 1d d1: bl (lu10)       0x11d <__udivdi3>
             0x00041256: a6 a4:       shl (2rus)      r2, r1, 0x18
             0x00041258: b0 ac:       shr (2rus)      r3, r0, 0x8
             0x0004125a: 2e 40:       or (3r)         r2, r3, r2
             0x0004125c: 94 ac:       shr (2rus)      r1, r1, 0x8
             0x0004125e: 19 40:       or (3r)         r1, r2, r1
             0x00041260: 4a 70:       bt (ru6)        r1, 0xa <.label148>
             0x00041262: 90 fc ec 3f: mul (l3r)       r1, r0, r8
             0x00041266: 55 fa 2f 03: lmul (l6r)      r1, r2, r1, r5, r7, r7
             0x0004126a: 56 fa ec 0f: xor (l3r)       r1, r1, r6
             0x0004126e: 68 fa ec 0f: xor (l3r)       r2, r2, r4
             0x00041272: 19 40:       or (3r)         r1, r2, r1
             0x00041274: 41 78:       bf (ru6)        r1, 0x1 <.label149>
.label148    0x00041276: d0 a6:       mkmsk (rus)     r0, 0x20
.label149    0x00041278: 06 5e:       ldw (ru6)       r8, sp[0x6]
             0x0004127a: 2e f9 ec ef: ldd (l2rus)     r7, r6, sp[0x2]
             0x0004127e: 05 f9 ec ef: ldd (l2rus)     r5, r4, sp[0x1]
             0x00041282: c8 77:       retsp (u6)      0x8

<__start_other_cores>:
             0x00041284: 00 f0 44 77: entsp (lu6)     0x4
             0x00041288: 01 55:       stw (ru6)       r4, sp[0x1]
             0x0004128a: 42 55:       stw (ru6)       r5, sp[0x2]
             0x0004128c: ed 07:       clre (0r)       
             0x0004128e: 07 87:       getr (rus)      r5, 0x3
             0x00041290: 44 08:       ldw (2rus)      r4, r1[0x0]
             0x00041292: 80 64:       ldaw (ru6)      r2, sp[0x0]
.label150    0x00041294: 00 f0 92 da: ldap (lu10)     r11, 0x292 <__start_core>
             0x00041298: 9d 07:       getst (2r)      r3, res[r5]
             0x0004129a: 5f ff ec 07: init (l2r)      t[r3]:pc, r11
             0x0004129e: 03 f8 ec b7: set (l3r)       t[r3]:r0, r0
             0x000412a2: d3 f8 ec b7: set (l3r)       t[r3]:r1, r4
             0x000412a6: 45 08:       ldw (2rus)      r4, r1[0x1]
             0x000412a8: 01 91:       add (2rus)      r4, r4, 0x1
             0x000412aa: c1 6a:       ldc (ru6)       r11, 0x1
             0x000412ac: f3 3d:       and (3r)        r11, r4, r11
             0x000412ae: 83 15:       add (3r)        r4, r4, r11
             0x000412b0: 02 a1:       shl (2rus)      r4, r4, 0x2
             0x000412b2: 68 1a:       sub (3r)        r2, r2, r4
             0x000412b4: cb fe ec 07: init (l2r)      t[r3]:sp, r2
             0x000412b8: 94 94:       add (2rus)      r1, r1, 0x8
             0x000412ba: 44 08:       ldw (2rus)      r4, r1[0x0]
             0x000412bc: 15 75:       bt (ru6)        r4, -0x15 <.label150>
             0x000412be: f5 1f:       msync (1r)      res[r5]
             0x000412c0: b5 08:       ldw (2rus)      r11, r1[0x1]
             0x000412c2: eb 27:       bla (1r)        r11
             0x000412c4: f5 17:       mjoin (1r)      res[r5]
             0x000412c6: e5 17:       freer (1r)      res[r5]
             0x000412c8: 01 5d:       ldw (ru6)       r4, sp[0x1]
             0x000412ca: 42 5d:       ldw (ru6)       r5, sp[0x2]
             0x000412cc: c4 77:       retsp (u6)      0x4
             0x000412ce: 00 00:       stw (2rus)      r0, r0[0x0]

<_DoSyscall>:
             0x000412d0: 00 f0 40 77: entsp (lu6)     0x0
             0x000412d4: d0 a6:       mkmsk (rus)     r0, 0x20
             0x000412d6: c0 77:       retsp (u6)      0x0

<__call_exitprocs_impl>:
             0x000412d8: 00 f0 40 77: entsp (lu6)     0x0
             0x000412dc: c0 77:       retsp (u6)      0x0
             0x000412de: 00 00:       stw (2rus)      r0, r0[0x0]

<__call_exitprocs>:
             0x000412e0: 00 f0 42 77: entsp (lu6)     0x2
             0x000412e4: 00 f0 08 d4: bl (lu10)       -0x8 <__call_exitprocs_impl>
             0x000412e8: c2 77:       retsp (u6)      0x2
             0x000412ea: 00 00:       stw (2rus)      r0, r0[0x0]

<_cleanup>:
             0x000412ec: 00 f0 42 77: entsp (lu6)     0x2
             0x000412f0: 00 f0 c6 d0: bl (lu10)       0xc6 <_cleanup_impl>
             0x000412f4: c2 77:       retsp (u6)      0x2
             0x000412f6: 00 00:       stw (2rus)      r0, r0[0x0]

<_done>:
             0x000412f8: 00 f0 40 77: entsp (lu6)     0x0
             0x000412fc: 07 68:       ldc (ru6)       r0, 0x7
             0x000412fe: 00 f0 19 d4: bl (lu10)       -0x19 <_DoSyscall>
             0x00041302: ed 07:       clre (0r)       
             0x00041304: ec 07:       waiteu (0r)     
             0x00041306: 00 00:       stw (2rus)      r0, r0[0x0]

<_exit>:
             0x00041308: 00 f0 40 77: entsp (lu6)     0x0
             0x0004130c: 10 90:       add (2rus)      r1, r0, 0x0
             0x0004130e: 00 68:       ldc (ru6)       r0, 0x0
             0x00041310: 00 f0 22 d4: bl (lu10)       -0x22 <_DoSyscall>
             0x00041314: ed 07:       clre (0r)       
             0x00041316: ec 07:       waiteu (0r)     

<__alloc_libc_hwlock>:
.label308    0x00041318: 00 f0 40 77: entsp (lu6)     0x0
             0x0004131c: 81 87:       getr (rus)      r0, 0x5
             0x0004131e: a9 f2 17 50: stw (lru6)      r0, dp[0xaa57]
             0x00041322: c0 77:       retsp (u6)      0x0

<__lock_fair_acquire>:
             0x00041324: 00 f0 40 77: entsp (lu6)     0x0
             0x00041328: a9 f2 57 58: ldw (lru6)      r1, dp[0xaa57]
             0x0004132c: c5 b6:       in (2r)         r1, res[r1]
             0x0004132e: 10 08:       ldw (2rus)      r1, r0[0x0]
             0x00041330: 25 90:       add (2rus)      r2, r1, 0x1
             0x00041332: 20 00:       stw (2rus)      r2, r0[0x0]
             0x00041334: a9 f2 97 58: ldw (lru6)      r2, dp[0xaa57]
             0x00041338: ca ae:       out (r2r)       res[r2], r2
.label151    0x0004133a: 21 08:       ldw (2rus)      r2, r0[0x1]
             0x0004133c: 29 30:       eq (3r)         r2, r2, r1
             0x0004133e: 83 7c:       bf (ru6)        r2, -0x3 <.label151>
             0x00041340: c0 77:       retsp (u6)      0x0
             0x00041342: 00 00:       stw (2rus)      r0, r0[0x0]

<__lock_fair_release>:
             0x00041344: 00 f0 40 77: entsp (lu6)     0x0
             0x00041348: 11 08:       ldw (2rus)      r1, r0[0x1]
             0x0004134a: 15 90:       add (2rus)      r1, r1, 0x1
             0x0004134c: 11 00:       stw (2rus)      r1, r0[0x1]
             0x0004134e: c0 77:       retsp (u6)      0x0

<__lock_recursive_init>:
             0x00041350: 00 f0 40 77: entsp (lu6)     0x0
             0x00041354: d4 a6:       mkmsk (rus)     r1, 0x20
             0x00041356: 10 00:       stw (2rus)      r1, r0[0x0]
             0x00041358: 40 68:       ldc (ru6)       r1, 0x0
             0x0004135a: 11 00:       stw (2rus)      r1, r0[0x1]
             0x0004135c: c0 77:       retsp (u6)      0x0
             0x0004135e: 00 00:       stw (2rus)      r0, r0[0x0]

<__lock_recursive_acquire>:
             0x00041360: 00 f0 40 77: entsp (lu6)     0x0
             0x00041364: ee 17:       get (0r)        r11, id
             0x00041366: 10 08:       ldw (2rus)      r1, r0[0x0]
             0x00041368: 97 34:       eq (3r)         r1, r1, r11
             0x0004136a: 53 70:       bt (ru6)        r1, 0x13 <.label152>
             0x0004136c: a9 f2 57 58: ldw (lru6)      r1, dp[0xaa57]
             0x00041370: c5 b6:       in (2r)         r1, res[r1]
             0x00041372: 20 08:       ldw (2rus)      r2, r0[0x0]
             0x00041374: d4 a6:       mkmsk (rus)     r1, 0x20
             0x00041376: 07 73:       bu (u6)         0x7 <.label153>
.label154    0x00041378: a9 f2 97 58: ldw (lru6)      r2, dp[0xaa57]
             0x0004137c: ca ae:       out (r2r)       res[r2], r2
             0x0004137e: a9 f2 97 58: ldw (lru6)      r2, dp[0xaa57]
             0x00041382: ca b6:       in (2r)         r2, res[r2]
             0x00041384: 20 08:       ldw (2rus)      r2, r0[0x0]
.label153    0x00041386: 29 30:       eq (3r)         r2, r2, r1
             0x00041388: 89 7c:       bf (ru6)        r2, -0x9 <.label154>
             0x0004138a: b0 00:       stw (2rus)      r11, r0[0x0]
             0x0004138c: a9 f2 57 58: ldw (lru6)      r1, dp[0xaa57]
             0x00041390: c5 ae:       out (r2r)       res[r1], r1
.label152    0x00041392: 11 08:       ldw (2rus)      r1, r0[0x1]
             0x00041394: 15 90:       add (2rus)      r1, r1, 0x1
             0x00041396: 11 00:       stw (2rus)      r1, r0[0x1]
             0x00041398: c0 77:       retsp (u6)      0x0
             0x0004139a: 00 00:       stw (2rus)      r0, r0[0x0]

<__lock_recursive_release>:
             0x0004139c: 00 f0 40 77: entsp (lu6)     0x0
             0x000413a0: 11 08:       ldw (2rus)      r1, r0[0x1]
             0x000413a2: 15 98:       sub (2rus)      r1, r1, 0x1
             0x000413a4: 11 00:       stw (2rus)      r1, r0[0x1]
             0x000413a6: 48 70:       bt (ru6)        r1, 0x8 <.label155>
             0x000413a8: a9 f2 57 58: ldw (lru6)      r1, dp[0xaa57]
             0x000413ac: c5 b6:       in (2r)         r1, res[r1]
             0x000413ae: d4 a6:       mkmsk (rus)     r1, 0x20
             0x000413b0: 10 00:       stw (2rus)      r1, r0[0x0]
             0x000413b2: a9 f2 17 58: ldw (lru6)      r0, dp[0xaa57]
             0x000413b6: c0 ae:       out (r2r)       res[r0], r0
.label155    0x000413b8: c0 77:       retsp (u6)      0x0
             0x000413ba: 00 00:       stw (2rus)      r0, r0[0x0]

<__sfp_lock_acquire>:
             0x000413bc: 00 f0 42 77: entsp (lu6)     0x2
             0x000413c0: 00 f0 13 60: ldaw (lru6)     r0, dp[0x13]
             0x000413c4: 00 f0 34 d4: bl (lu10)       -0x34 <__lock_recursive_acquire>
             0x000413c8: c2 77:       retsp (u6)      0x2
             0x000413ca: 00 00:       stw (2rus)      r0, r0[0x0]

<__sinit>:
             0x000413cc: 00 f0 44 77: entsp (lu6)     0x4
             0x000413d0: 02 55:       stw (ru6)       r4, sp[0x2]
             0x000413d2: 00 f0 15 60: ldaw (lru6)     r0, dp[0x15]
             0x000413d6: 00 f0 3d d4: bl (lu10)       -0x3d <__lock_recursive_acquire>
             0x000413da: a9 f2 18 58: ldw (lru6)      r0, dp[0xaa58]
             0x000413de: 1e 70:       bt (ru6)        r0, 0x1e <.label156>
             0x000413e0: 80 68:       ldc (ru6)       r2, 0x0
             0x000413e2: a9 f2 94 50: stw (lru6)      r2, dp[0xaa54]
             0x000413e6: d2 a6:       mkmsk (rus)     r0, 0x2
             0x000413e8: a9 f2 15 50: stw (lru6)      r0, dp[0xaa55]
             0x000413ec: a9 f2 19 60: ldaw (lru6)     r0, dp[0xaa59]
             0x000413f0: a9 f2 16 50: stw (lru6)      r0, dp[0xaa56]
             0x000413f4: 00 f0 10 58: ldw (lru6)      r0, dp[0x10]
             0x000413f8: 44 68:       ldc (ru6)       r1, 0x4
             0x000413fa: 00 f0 1d d0: bl (lu10)       0x1d <std>
             0x000413fe: 00 f0 11 58: ldw (lru6)      r0, dp[0x11]
             0x00041402: 49 68:       ldc (ru6)       r1, 0x9
             0x00041404: 11 a7:       mkmsk (rus)     r4, 0x1
             0x00041406: e0 90:       add (2rus)      r2, r4, 0x0
             0x00041408: 00 f0 16 d0: bl (lu10)       0x16 <std>
             0x0004140c: 00 f0 12 58: ldw (lru6)      r0, dp[0x12]
             0x00041410: 52 68:       ldc (ru6)       r1, 0x12
             0x00041412: 82 68:       ldc (ru6)       r2, 0x2
             0x00041414: 00 f0 10 d0: bl (lu10)       0x10 <std>
             0x00041418: a9 f2 18 51: stw (lru6)      r4, dp[0xaa58]
.label156    0x0004141c: 00 f0 15 60: ldaw (lru6)     r0, dp[0x15]
             0x00041420: 00 f0 44 d4: bl (lu10)       -0x44 <__lock_recursive_release>
             0x00041424: 02 5d:       ldw (ru6)       r4, sp[0x2]
             0x00041426: c4 77:       retsp (u6)      0x4

<__sfp_lock_release>:
             0x00041428: 00 f0 42 77: entsp (lu6)     0x2
             0x0004142c: 00 f0 13 60: ldaw (lru6)     r0, dp[0x13]
             0x00041430: 00 f0 4c d4: bl (lu10)       -0x4c <__lock_recursive_release>
             0x00041434: c2 77:       retsp (u6)      0x2
             0x00041436: 00 00:       stw (2rus)      r0, r0[0x0]

<std>:
             0x00041438: 00 f0 42 77: entsp (lu6)     0x2
             0x0004143c: c0 68:       ldc (ru6)       r3, 0x0
             0x0004143e: 30 00:       stw (2rus)      r3, r0[0x0]
             0x00041440: 31 00:       stw (2rus)      r3, r0[0x1]
             0x00041442: 32 00:       stw (2rus)      r3, r0[0x2]
             0x00041444: b3 f8 ec 9f: ldaw (l2rus)    r11, r0[0x3]
             0x00041448: 9f f9 ec 87: st16 (l3r)      r1, r11[r3]
             0x0004144c: 4e 68:       ldc (ru6)       r1, 0xe
             0x0004144e: 11 10:       add (3r)        r1, r0, r1
             0x00041450: 27 f8 ec 87: st16 (l3r)      r2, r1[r3]
             0x00041454: 70 02:       stw (2rus)      r3, r0[0x4]
             0x00041456: 71 02:       stw (2rus)      r3, r0[0x5]
             0x00041458: 72 02:       stw (2rus)      r3, r0[0x6]
             0x0004145a: 43 02:       stw (2rus)      r0, r0[0x7]
             0x0004145c: 01 f0 20 d8: ldap (lu10)     r11, 0x420 <__sread>
             0x00041460: 30 05:       stw (2rus)      r11, r0[0x8]
             0x00041462: 01 f0 3f d8: ldap (lu10)     r11, 0x43f <__swrite>
             0x00041466: 31 05:       stw (2rus)      r11, r0[0x9]
             0x00041468: 01 f0 6a d8: ldap (lu10)     r11, 0x46a <__sseek>
             0x0004146c: 32 05:       stw (2rus)      r11, r0[0xa]
             0x0004146e: 01 f0 8d d8: ldap (lu10)     r11, 0x48d <__sclose>
             0x00041472: 33 05:       stw (2rus)      r11, r0[0xb]
             0x00041474: 01 f0 54 68: ldc (lru6)      r1, 0x54
             0x00041478: 01 10:       add (3r)        r0, r0, r1
             0x0004147a: 00 f0 97 d4: bl (lu10)       -0x97 <__lock_recursive_init>
             0x0004147e: c2 77:       retsp (u6)      0x2

<_cleanup_impl>:
             0x00041480: 00 f0 42 77: entsp (lu6)     0x2
             0x00041484: 01 f0 00 d8: ldap (lu10)     r11, 0x400 <fflush>
             0x00041488: 8c 91:       add (2rus)      r0, r11, 0x0
             0x0004148a: 00 f0 cf d2: bl (lu10)       0x2cf <_fwalk>
             0x0004148e: c2 77:       retsp (u6)      0x2

<__udivdi3>:
             0x00041490: 00 f0 42 77: entsp (lu6)     0x2
             0x00041494: c0 6a:       ldc (ru6)       r11, 0x0
             0x00041496: c1 56:       stw (ru6)       r11, sp[0x1]
             0x00041498: 01 f0 82 d0: bl (lu10)       0x482 <__udivmoddi4>
             0x0004149c: c2 77:       retsp (u6)      0x2
             0x0004149e: 00 00:       stw (2rus)      r0, r0[0x0]

<strlen>:
             0x000414a0: 00 f0 40 77: entsp (lu6)     0x0
             0x000414a4: 21 98:       sub (2rus)      r2, r0, 0x1
             0x000414a6: d5 a6:       mkmsk (rus)     r1, 0x1
.label157    0x000414a8: 39 90:       add (2rus)      r3, r2, 0x1
             0x000414aa: b9 88:       ld8u (3r)       r11, r2[r1]
             0x000414ac: 2c 90:       add (2rus)      r2, r3, 0x0
             0x000414ae: c4 76:       bt (ru6)        r11, -0x4 <.label157>
             0x000414b0: 0c 18:       sub (3r)        r0, r3, r0
             0x000414b2: c0 77:       retsp (u6)      0x0

<__sfvwrite>:
             0x000414b4: 00 f0 4e 77: entsp (lu6)     0xe
             0x000414b8: 07 f9 ec f7: std (l2rus)     r5, r4, sp[0x3]
             0x000414bc: 6c fb ec f7: std (l2rus)     r7, r6, sp[0x4]
             0x000414c0: 45 fc ec f7: std (l2rus)     r9, r8, sp[0x5]
             0x000414c4: 8c 56:       stw (ru6)       r10, sp[0xc]
             0x000414c6: 64 90:       add (2rus)      r6, r1, 0x0
             0x000414c8: 83 55:       stw (ru6)       r6, sp[0x3]
             0x000414ca: 50 90:       add (2rus)      r5, r0, 0x0
             0x000414cc: ca 08:       ldw (2rus)      r0, r6[0x2]
             0x000414ce: 02 f0 2b 78: bf (lru6)       r0, 0xab <.label158>
             0x000414d2: 07 f9 ec 9f: ldaw (l2rus)    r4, r5[0x3]
             0x000414d6: 80 6a:       ldc (ru6)       r10, 0x0
             0x000414d8: 52 85:       ld16s (3r)      r1, r4[r10]
             0x000414da: 08 68:       ldc (ru6)       r0, 0x8
             0x000414dc: 04 38:       and (3r)        r0, r1, r0
             0x000414de: 04 78:       bf (ru6)        r0, 0x4 <.label159>
             0x000414e0: 04 0b:       ldw (2rus)      r0, r5[0x4]
             0x000414e2: 02 78:       bf (ru6)        r0, 0x2 <.label159>
             0x000414e4: 35 47:       zext (rus)      r1, 0x10
             0x000414e6: 11 73:       bu (u6)         0x11 <.label160>
.label159    0x000414e8: c4 90:       add (2rus)      r0, r5, 0x0
             0x000414ea: 00 f0 73 d1: bl (lu10)       0x173 <__swsetup>
             0x000414ee: 80 68:       ldc (ru6)       r2, 0x0
             0x000414f0: d2 80:       ld16s (3r)      r1, r4[r2]
             0x000414f2: 0b 78:       bf (ru6)        r0, 0xb <.label160>
             0x000414f4: 01 f0 00 68: ldc (lru6)      r0, 0x40
             0x000414f8: 04 40:       or (3r)         r0, r1, r0
             0x000414fa: c2 f8 ec 87: st16 (l3r)      r0, r4[r2]
             0x000414fe: 00 f0 8d d2: bl (lu10)       0x28d <__errno>
             0x00041502: 49 68:       ldc (ru6)       r1, 0x9
             0x00041504: 10 00:       stw (2rus)      r1, r0[0x0]
             0x00041506: 05 f0 00 73: bu (lu6)        0x140 <.label161>
.label160    0x0004150a: c8 08:       ldw (2rus)      r0, r6[0x0]
             0x0004150c: 02 54:       stw (ru6)       r0, sp[0x2]
             0x0004150e: 35 37:       sext (rus)      r1, 0x10
             0x00041510: 02 68:       ldc (ru6)       r0, 0x2
             0x00041512: 04 38:       and (3r)        r0, r1, r0
             0x00041514: 07 78:       bf (ru6)        r0, 0x7 <.label162>
             0x00041516: 05 55:       stw (ru6)       r4, sp[0x5]
             0x00041518: 01 f0 00 69: ldc (lru6)      r4, 0x40
             0x0004151c: 51 a7:       mkmsk (rus)     r8, 0x1
             0x0004151e: f8 91:       add (2rus)      r7, r10, 0x0
             0x00041520: 18 92:       add (2rus)      r9, r10, 0x0
             0x00041522: 0d 73:       bu (u6)         0xd <.label163>
.label162    0x00041524: d5 46:       zext (rus)      r1, 0x1
             0x00041526: 61 78:       bf (ru6)        r1, 0x21 <.label164>
             0x00041528: 05 55:       stw (ru6)       r4, sp[0x5]
             0x0004152a: 00 68:       ldc (ru6)       r0, 0x0
             0x0004152c: 80 90:       add (2rus)      r8, r0, 0x0
             0x0004152e: 90 90:       add (2rus)      r9, r0, 0x0
             0x00041530: 40 90:       add (2rus)      r4, r0, 0x0
             0x00041532: 26 73:       bu (u6)         0x26 <.label165>
.label166    0x00041534: 02 5c:       ldw (ru6)       r0, sp[0x2]
             0x00041536: 70 08:       ldw (2rus)      r7, r0[0x0]
             0x00041538: 91 08:       ldw (2rus)      r9, r0[0x1]
             0x0004153a: 80 94:       add (2rus)      r0, r0, 0x8
             0x0004153c: 02 54:       stw (ru6)       r0, sp[0x2]
.label163    0x0004153e: 46 7e:       bf (ru6)        r9, -0x6 <.label166>
             0x00041540: f5 0d:       ldw (2rus)      r11, r5[0x9]
             0x00041542: 17 0b:       ldw (2rus)      r1, r5[0x7]
             0x00041544: c6 ab:       shr (2rus)      r0, r9, 0x6
             0x00041546: f0 90:       add (2rus)      r3, r4, 0x0
             0x00041548: 01 70:       bt (ru6)        r0, 0x1 <.label167>
             0x0004154a: b4 91:       add (2rus)      r3, r9, 0x0
.label167    0x0004154c: 88 91:       add (2rus)      r0, r10, 0x0
             0x0004154e: ec 90:       add (2rus)      r2, r7, 0x0
             0x00041550: eb 27:       bla (1r)        r11
             0x00041552: 90 c4:       lss (3r)        r1, r0, r8
             0x00041554: 04 f0 51 70: bt (lru6)       r1, 0x111 <.label168>
             0x00041558: 3c 11:       add (3r)        r7, r7, r0
             0x0004155a: 14 1a:       sub (3r)        r9, r9, r0
             0x0004155c: da 08:       ldw (2rus)      r1, r6[0x2]
             0x0004155e: 24 18:       sub (3r)        r2, r1, r0
             0x00041560: ea 00:       stw (2rus)      r2, r6[0x2]
             0x00041562: 04 30:       eq (3r)         r0, r1, r0
             0x00041564: 14 7c:       bf (ru6)        r0, -0x14 <.label163>
             0x00041566: 04 f0 11 73: bu (lu6)        0x111 <.label169>
.label164    0x0004156a: 80 6a:       ldc (ru6)       r10, 0x0
             0x0004156c: f8 91:       add (2rus)      r7, r10, 0x0
             0x0004156e: 08 92:       add (2rus)      r8, r10, 0x0
             0x00041570: 01 f0 22 73: bu (lu6)        0x62 <.label170>
.label171    0x00041574: 02 5c:       ldw (ru6)       r0, sp[0x2]
             0x00041576: 80 08:       ldw (2rus)      r8, r0[0x0]
             0x00041578: 91 08:       ldw (2rus)      r9, r0[0x1]
             0x0004157a: 80 94:       add (2rus)      r0, r0, 0x8
             0x0004157c: 02 54:       stw (ru6)       r0, sp[0x2]
             0x0004157e: 00 68:       ldc (ru6)       r0, 0x0
.label165    0x00041580: 04 54:       stw (ru6)       r0, sp[0x4]
.label180    0x00041582: 48 7e:       bf (ru6)        r9, -0x8 <.label171>
             0x00041584: 04 5c:       ldw (ru6)       r0, sp[0x4]
             0x00041586: 0c 70:       bt (ru6)        r0, 0xc <.label172>
             0x00041588: 80 91:       add (2rus)      r0, r8, 0x0
             0x0004158a: 4a 68:       ldc (ru6)       r1, 0xa
             0x0004158c: a4 91:       add (2rus)      r2, r9, 0x0
             0x0004158e: 00 f0 35 d2: bl (lu10)       0x235 <memchr>
             0x00041592: 03 78:       bf (ru6)        r0, 0x3 <.label173>
             0x00041594: 01 90:       add (2rus)      r0, r0, 0x1
             0x00041596: c0 1c:       sub (3r)        r4, r0, r8
             0x00041598: 01 73:       bu (u6)         0x1 <.label174>
.label173    0x0004159a: c5 91:       add (2rus)      r4, r9, 0x1
.label174    0x0004159c: d1 a6:       mkmsk (rus)     r0, 0x1
             0x0004159e: 04 54:       stw (ru6)       r0, sp[0x4]
.label172    0x000415a0: c4 cb:       lsu (3r)        r0, r9, r4
             0x000415a2: f4 91:       add (2rus)      r7, r9, 0x0
             0x000415a4: 01 70:       bt (ru6)        r0, 0x1 <.label175>
             0x000415a6: 30 91:       add (2rus)      r7, r4, 0x0
.label175    0x000415a8: 35 0b:       ldw (2rus)      r3, r5[0x5]
             0x000415aa: c4 08:       ldw (2rus)      r0, r5[0x0]
             0x000415ac: 14 0b:       ldw (2rus)      r1, r5[0x4]
             0x000415ae: 14 c8:       lsu (3r)        r1, r1, r0
             0x000415b0: 51 78:       bf (ru6)        r1, 0x11 <.label176>
             0x000415b2: d6 08:       ldw (2rus)      r1, r5[0x2]
             0x000415b4: ad 10:       add (3r)        r10, r3, r1
             0x000415b6: db c3:       lss (3r)        r1, r10, r7
             0x000415b8: 4d 78:       bf (ru6)        r1, 0xd <.label176>
             0x000415ba: 90 91:       add (2rus)      r1, r8, 0x0
             0x000415bc: a8 91:       add (2rus)      r2, r10, 0x0
             0x000415be: 01 f0 f5 d0: bl (lu10)       0x4f5 <memmove>
             0x000415c2: c4 08:       ldw (2rus)      r0, r5[0x0]
             0x000415c4: 82 14:       add (3r)        r0, r0, r10
             0x000415c6: c4 00:       stw (2rus)      r0, r5[0x0]
             0x000415c8: c4 90:       add (2rus)      r0, r5, 0x0
             0x000415ca: 00 f0 7f d2: bl (lu10)       0x27f <_fflush>
             0x000415ce: 1a 78:       bf (ru6)        r0, 0x1a <.label177>
             0x000415d0: 03 f0 13 73: bu (lu6)        0xd3 <.label168>
.label176    0x000415d4: df c0:       lss (3r)        r1, r7, r3
             0x000415d6: 4c 78:       bf (ru6)        r1, 0xc <.label178>
             0x000415d8: 90 91:       add (2rus)      r1, r8, 0x0
             0x000415da: ec 90:       add (2rus)      r2, r7, 0x0
             0x000415dc: 01 f0 e6 d0: bl (lu10)       0x4e6 <memmove>
             0x000415e0: c6 08:       ldw (2rus)      r0, r5[0x2]
             0x000415e2: 43 1a:       sub (3r)        r0, r0, r7
             0x000415e4: c6 00:       stw (2rus)      r0, r5[0x2]
             0x000415e6: c4 08:       ldw (2rus)      r0, r5[0x0]
             0x000415e8: 43 12:       add (3r)        r0, r0, r7
             0x000415ea: c4 00:       stw (2rus)      r0, r5[0x0]
             0x000415ec: 6c 91:       add (2rus)      r10, r7, 0x0
             0x000415ee: 0a 73:       bu (u6)         0xa <.label177>
.label178    0x000415f0: f5 0d:       ldw (2rus)      r11, r5[0x9]
             0x000415f2: 17 0b:       ldw (2rus)      r1, r5[0x7]
             0x000415f4: 00 68:       ldc (ru6)       r0, 0x0
             0x000415f6: a0 91:       add (2rus)      r2, r8, 0x0
             0x000415f8: eb 27:       bla (1r)        r11
             0x000415fa: a0 90:       add (2rus)      r10, r0, 0x0
             0x000415fc: d1 a6:       mkmsk (rus)     r0, 0x1
             0x000415fe: 88 c1:       lss (3r)        r0, r10, r0
             0x00041600: 02 f0 3b 70: bt (lru6)       r0, 0xbb <.label168>
.label177    0x00041604: 42 35:       eq (3r)         r0, r4, r10
             0x00041606: 07 78:       bf (ru6)        r0, 0x7 <.label179>
             0x00041608: c4 90:       add (2rus)      r0, r5, 0x0
             0x0004160a: 00 f0 5f d2: bl (lu10)       0x25f <_fflush>
             0x0004160e: 40 68:       ldc (ru6)       r1, 0x0
             0x00041610: 44 54:       stw (ru6)       r1, sp[0x4]
             0x00041612: 02 f0 32 70: bt (lru6)       r0, 0xb2 <.label168>
.label179    0x00041616: 82 1d:       sub (3r)        r4, r4, r10
             0x00041618: 82 16:       add (3r)        r8, r8, r10
             0x0004161a: 96 1e:       sub (3r)        r9, r9, r10
             0x0004161c: ca 08:       ldw (2rus)      r0, r6[0x2]
             0x0004161e: 92 1c:       sub (3r)        r1, r0, r10
             0x00041620: da 00:       stw (2rus)      r1, r6[0x2]
             0x00041622: 82 34:       eq (3r)         r0, r0, r10
             0x00041624: 01 f0 13 7c: bf (lru6)       r0, -0x53 <.label180>
.label158    0x00041628: 80 6a:       ldc (ru6)       r10, 0x0
             0x0004162a: 02 f0 2f 73: bu (lu6)        0xaf <.label169>
.label181    0x0004162e: 02 5c:       ldw (ru6)       r0, sp[0x2]
             0x00041630: 70 08:       ldw (2rus)      r7, r0[0x0]
             0x00041632: 81 08:       ldw (2rus)      r8, r0[0x1]
             0x00041634: 80 94:       add (2rus)      r0, r0, 0x8
             0x00041636: 02 54:       stw (ru6)       r0, sp[0x2]
.label170    0x00041638: 06 7e:       bf (ru6)        r8, -0x6 <.label181>
             0x0004163a: 56 09:       ldw (2rus)      r9, r5[0x2]
             0x0004163c: 62 85:       ld16s (3r)      r2, r4[r10]
             0x0004163e: 08 f0 00 68: ldc (lru6)      r0, 0x200
             0x00041642: 08 38:       and (3r)        r0, r2, r0
             0x00041644: 36 78:       bf (ru6)        r0, 0x36 <.label182>
             0x00041646: 11 ce:       lsu (3r)        r1, r8, r9
             0x00041648: c4 08:       ldw (2rus)      r0, r5[0x0]
             0x0004164a: 01 f0 46 70: bt (lru6)       r1, 0x46 <.label183>
             0x0004164e: 12 f0 40 68: ldc (lru6)      r1, 0x480
             0x00041652: 19 38:       and (3r)        r1, r2, r1
             0x00041654: 01 f0 41 78: bf (lru6)       r1, 0x41 <.label183>
             0x00041658: 14 0b:       ldw (2rus)      r1, r5[0x4]
             0x0004165a: 91 18:       sub (3r)        r9, r0, r1
             0x0004165c: 05 0b:       ldw (2rus)      r0, r5[0x5]
             0x0004165e: 00 f8 ec 2f: lda16 (l3r)     r0, r0[r0]
             0x00041662: 9d a7:       mkmsk (rus)     r3, 0x5
             0x00041664: 33 28:       shr (3r)        r3, r0, r3
             0x00041666: 03 10:       add (3r)        r0, r0, r3
             0x00041668: 01 f8 ec 97: ashr (l2rus)    r0, r0, 0x1
             0x0004166c: 31 16:       add (3r)        r3, r8, r9
             0x0004166e: bd 90:       add (2rus)      r11, r3, 0x1
             0x00041670: b3 cc:       lsu (3r)        r3, r0, r11
             0x00041672: c1 70:       bt (ru6)        r3, 0x1 <.label184>
             0x00041674: b0 90:       add (2rus)      r11, r0, 0x0
.label184    0x00041676: 10 f0 00 68: ldc (lru6)      r0, 0x400
             0x0004167a: 08 38:       and (3r)        r0, r2, r0
             0x0004167c: 3e 78:       bf (ru6)        r0, 0x3e <.label185>
             0x0004167e: 24 92:       add (2rus)      r10, r9, 0x0
             0x00041680: 8c 91:       add (2rus)      r0, r11, 0x0
             0x00041682: c5 56:       stw (ru6)       r11, sp[0x5]
             0x00041684: 00 f0 aa d1: bl (lu10)       0x1aa <malloc>
             0x00041688: 90 90:       add (2rus)      r9, r0, 0x0
             0x0004168a: 01 f0 6c 7a: bf (lru6)       r9, 0x6c <.label186>
             0x0004168e: 14 0b:       ldw (2rus)      r1, r5[0x4]
             0x00041690: 84 91:       add (2rus)      r0, r9, 0x0
             0x00041692: a8 91:       add (2rus)      r2, r10, 0x0
             0x00041694: 01 f0 86 d0: bl (lu10)       0x486 <memcpy> <__memcpy_4>
             0x00041698: 00 68:       ldc (ru6)       r0, 0x0
             0x0004169a: 10 90:       add (2rus)      r1, r0, 0x0
             0x0004169c: c1 80:       ld16s (3r)      r0, r4[r1]
             0x0004169e: ed f3 bf 68: ldc (lru6)      r2, 0xfb7f
             0x000416a2: 02 38:       and (3r)        r0, r0, r2
             0x000416a4: 02 f0 80 68: ldc (lru6)      r2, 0x80
             0x000416a8: 02 40:       or (3r)         r0, r0, r2
             0x000416aa: c1 f8 ec 87: st16 (l3r)      r0, r4[r1]
             0x000416ae: 85 5d:       ldw (ru6)       r6, sp[0x5]
             0x000416b0: 2c 73:       bu (u6)         0x2c <.label187>
.label182    0x000416b2: c4 08:       ldw (2rus)      r0, r5[0x0]
             0x000416b4: 14 0b:       ldw (2rus)      r1, r5[0x4]
             0x000416b6: 14 c8:       lsu (3r)        r1, r1, r0
             0x000416b8: 52 78:       bf (ru6)        r1, 0x12 <.label188>
             0x000416ba: 14 ce:       lsu (3r)        r1, r9, r8
             0x000416bc: 50 78:       bf (ru6)        r1, 0x10 <.label188>
             0x000416be: 05 55:       stw (ru6)       r4, sp[0x5]
             0x000416c0: dc 90:       add (2rus)      r1, r7, 0x0
             0x000416c2: a4 91:       add (2rus)      r2, r9, 0x0
             0x000416c4: 01 f0 72 d0: bl (lu10)       0x472 <memmove>
             0x000416c8: c4 08:       ldw (2rus)      r0, r5[0x0]
             0x000416ca: 81 14:       add (3r)        r0, r0, r9
             0x000416cc: c4 00:       stw (2rus)      r0, r5[0x0]
             0x000416ce: c4 90:       add (2rus)      r0, r5, 0x0
             0x000416d0: 00 f0 fc d1: bl (lu10)       0x1fc <_fflush>
             0x000416d4: 32 78:       bf (ru6)        r0, 0x32 <.label189>
             0x000416d6: 01 f0 10 73: bu (lu6)        0x50 <.label168>
.label183    0x000416da: 05 55:       stw (ru6)       r4, sp[0x5]
             0x000416dc: 1f 73:       bu (u6)         0x1f <.label190>
.label188    0x000416de: 35 0b:       ldw (2rus)      r3, r5[0x5]
             0x000416e0: 93 c9:       lsu (3r)        r1, r8, r3
             0x000416e2: 76 78:       bf (ru6)        r1, 0x36 <.label191>
             0x000416e4: 05 55:       stw (ru6)       r4, sp[0x5]
             0x000416e6: dc 90:       add (2rus)      r1, r7, 0x0
             0x000416e8: a0 91:       add (2rus)      r2, r8, 0x0
             0x000416ea: 01 f0 5f d0: bl (lu10)       0x45f <memmove>
             0x000416ee: c6 08:       ldw (2rus)      r0, r5[0x2]
             0x000416f0: 80 1c:       sub (3r)        r0, r0, r8
             0x000416f2: c6 00:       stw (2rus)      r0, r5[0x2]
             0x000416f4: c4 08:       ldw (2rus)      r0, r5[0x0]
             0x000416f6: 80 14:       add (3r)        r0, r0, r8
             0x000416f8: 1e 73:       bu (u6)         0x1e <.label192>
.label185    0x000416fa: 04 90:       add (2rus)      r0, r1, 0x0
             0x000416fc: 9c 91:       add (2rus)      r1, r11, 0x0
             0x000416fe: ec 91:       add (2rus)      r6, r11, 0x0
             0x00041700: 01 f0 66 d0: bl (lu10)       0x466 <realloc>
             0x00041704: 24 92:       add (2rus)      r10, r9, 0x0
             0x00041706: 90 90:       add (2rus)      r9, r0, 0x0
             0x00041708: 70 7a:       bf (ru6)        r9, 0x30 <.label193>
.label187    0x0004170a: 05 55:       stw (ru6)       r4, sp[0x5]
             0x0004170c: 94 03:       stw (2rus)      r9, r5[0x4]
             0x0004170e: 06 16:       add (3r)        r0, r9, r10
             0x00041710: c4 00:       stw (2rus)      r0, r5[0x0]
             0x00041712: 65 03:       stw (2rus)      r6, r5[0x5]
             0x00041714: 5a 1d:       sub (3r)        r1, r6, r10
             0x00041716: d6 00:       stw (2rus)      r1, r5[0x2]
             0x00041718: 10 92:       add (2rus)      r9, r8, 0x0
             0x0004171a: 83 5d:       ldw (ru6)       r6, sp[0x3]
.label190    0x0004171c: 11 ce:       lsu (3r)        r1, r8, r9
             0x0004171e: 20 92:       add (2rus)      r10, r8, 0x0
             0x00041720: 41 70:       bt (ru6)        r1, 0x1 <.label194>
             0x00041722: 24 92:       add (2rus)      r10, r9, 0x0
.label194    0x00041724: dc 90:       add (2rus)      r1, r7, 0x0
             0x00041726: a8 91:       add (2rus)      r2, r10, 0x0
             0x00041728: 01 f0 40 d0: bl (lu10)       0x440 <memmove>
             0x0004172c: c6 08:       ldw (2rus)      r0, r5[0x2]
             0x0004172e: 82 1c:       sub (3r)        r0, r0, r10
             0x00041730: c6 00:       stw (2rus)      r0, r5[0x2]
             0x00041732: c4 08:       ldw (2rus)      r0, r5[0x0]
             0x00041734: 82 14:       add (3r)        r0, r0, r10
.label192    0x00041736: c4 00:       stw (2rus)      r0, r5[0x0]
             0x00041738: 10 92:       add (2rus)      r9, r8, 0x0
.label189    0x0004173a: bd 15:       add (3r)        r7, r7, r9
             0x0004173c: 81 1e:       sub (3r)        r8, r8, r9
             0x0004173e: ca 08:       ldw (2rus)      r0, r6[0x2]
             0x00041740: 91 1c:       sub (3r)        r1, r0, r9
             0x00041742: da 00:       stw (2rus)      r1, r6[0x2]
             0x00041744: 81 34:       eq (3r)         r0, r0, r9
             0x00041746: 05 5d:       ldw (ru6)       r4, sp[0x5]
             0x00041748: 80 6a:       ldc (ru6)       r10, 0x0
             0x0004174a: 02 f0 0b 7c: bf (lru6)       r0, -0x8b <.label170>
             0x0004174e: 1e 73:       bu (u6)         0x1e <.label169>
.label191    0x00041750: 05 55:       stw (ru6)       r4, sp[0x5]
             0x00041752: f5 0d:       ldw (2rus)      r11, r5[0x9]
             0x00041754: 17 0b:       ldw (2rus)      r1, r5[0x7]
             0x00041756: 88 91:       add (2rus)      r0, r10, 0x0
             0x00041758: ec 90:       add (2rus)      r2, r7, 0x0
             0x0004175a: eb 27:       bla (1r)        r11
             0x0004175c: 90 90:       add (2rus)      r9, r0, 0x0
             0x0004175e: d1 a6:       mkmsk (rus)     r0, 0x1
             0x00041760: 84 c1:       lss (3r)        r0, r9, r0
             0x00041762: 15 7c:       bf (ru6)        r0, -0x15 <.label189>
             0x00041764: 0a 73:       bu (u6)         0xa <.label168>
.label186    0x00041766: 05 55:       stw (ru6)       r4, sp[0x5]
             0x00041768: 04 73:       bu (u6)         0x4 <.label195>
.label193    0x0004176a: 05 55:       stw (ru6)       r4, sp[0x5]
             0x0004176c: 04 0b:       ldw (2rus)      r0, r5[0x4]
             0x0004176e: 00 f0 d1 d0: bl (lu10)       0xd1 <free>
.label195    0x00041772: 00 f0 53 d1: bl (lu10)       0x153 <__errno>
             0x00041776: 4c 68:       ldc (ru6)       r1, 0xc
             0x00041778: 10 00:       stw (2rus)      r1, r0[0x0]
.label168    0x0004177a: 00 68:       ldc (ru6)       r0, 0x0
             0x0004177c: c5 5c:       ldw (ru6)       r3, sp[0x5]
             0x0004177e: 1c 80:       ld16s (3r)      r1, r3[r0]
             0x00041780: 01 f0 80 68: ldc (lru6)      r2, 0x40
             0x00041784: 16 40:       or (3r)         r1, r1, r2
             0x00041786: 1c f8 ec 87: st16 (l3r)      r1, r3[r0]
.label161    0x0004178a: 58 a7:       mkmsk (rus)     r10, 0x20
.label169    0x0004178c: 88 91:       add (2rus)      r0, r10, 0x0
             0x0004178e: 8c 5e:       ldw (ru6)       r10, sp[0xc]
             0x00041790: 45 fc ec ef: ldd (l2rus)     r9, r8, sp[0x5]
             0x00041794: 6c fb ec ef: ldd (l2rus)     r7, r6, sp[0x4]
             0x00041798: 07 f9 ec ef: ldd (l2rus)     r5, r4, sp[0x3]
             0x0004179c: ce 77:       retsp (u6)      0xe
             0x0004179e: 00 00:       stw (2rus)      r0, r0[0x0]

<__set_port_in>:
             0x000417a0: 00 f0 40 77: entsp (lu6)     0x0
             0x000417a4: 00 f0 46 68: ldc (lru6)      r1, 0x6
             0x000417a8: d4 fe ec 0f: setclk (lr2r)   res[r0], r1
             0x000417ac: c0 f0 47 68: ldc (lru6)      r1, 0x3007
             0x000417b0: d1 fe ec 2f: setc (l2r)      res[r0], r1
             0x000417b4: 01 e8:       setc (ru6)      res[r0], 0x1
             0x000417b6: c0 b6:       in (2r)         r0, res[r0]
             0x000417b8: c0 77:       retsp (u6)      0x0
             0x000417ba: 00 00:       stw (2rus)      r0, r0[0x0]

<__start_core>:
             0x000417bc: 00 f0 40 77: entsp (lu6)     0x0
             0x000417c0: 40 90:       add (2rus)      r4, r0, 0x0
             0x000417c2: 34 90:       add (2rus)      r3, r1, 0x0
             0x000417c4: 00 f0 94 d7: bl (lu10)       -0x394 <__init_threadlocal_timer>
             0x000417c8: c0 90:       add (2rus)      r0, r4, 0x0
             0x000417ca: e3 27:       bla (1r)        r3
             0x000417cc: 00 f0 8e d7: bl (lu10)       -0x38e <__free_threadlocal_timer>
             0x000417d0: ee 07:       ssync (0r)      
             0x000417d2: 00 00:       stw (2rus)      r0, r0[0x0]

<__swsetup>:
             0x000417d4: 00 f0 48 77: entsp (lu6)     0x8
             0x000417d8: 05 f9 ec f7: std (l2rus)     r5, r4, sp[0x1]
             0x000417dc: 2e f9 ec f7: std (l2rus)     r7, r6, sp[0x2]
             0x000417e0: 06 56:       stw (ru6)       r8, sp[0x6]
             0x000417e2: 50 90:       add (2rus)      r5, r0, 0x0
             0x000417e4: a9 f2 18 58: ldw (lru6)      r0, dp[0xaa58]
             0x000417e8: 02 70:       bt (ru6)        r0, 0x2 <.label196>
             0x000417ea: 00 f0 11 d6: bl (lu10)       -0x211 <__sinit>
.label196    0x000417ee: 27 f9 ec 9f: ldaw (l2rus)    r6, r5[0x3]
             0x000417f2: 00 69:       ldc (ru6)       r4, 0x0
             0x000417f4: 18 83:       ld16s (3r)      r1, r6[r4]
             0x000417f6: c8 69:       ldc (ru6)       r7, 0x8
             0x000417f8: 47 3a:       and (3r)        r0, r1, r7
             0x000417fa: 23 70:       bt (ru6)        r0, 0x23 <.label197>
             0x000417fc: 10 68:       ldc (ru6)       r0, 0x10
             0x000417fe: 04 38:       and (3r)        r0, r1, r0
             0x00041800: 3d 78:       bf (ru6)        r0, 0x3d <.label198>
             0x00041802: 04 68:       ldc (ru6)       r0, 0x4
             0x00041804: 04 38:       and (3r)        r0, r1, r0
             0x00041806: 18 78:       bf (ru6)        r0, 0x18 <.label199>
             0x00041808: 30 68:       ldc (ru6)       r0, 0x30
             0x0004180a: 44 11:       add (3r)        r8, r5, r0
             0x0004180c: 80 09:       ldw (2rus)      r0, r8[0x0]
             0x0004180e: 0b 78:       bf (ru6)        r0, 0xb <.label200>
             0x00041810: 01 f0 80 68: ldc (lru6)      r2, 0x40
             0x00041814: e6 10:       add (3r)        r2, r5, r2
             0x00041816: 22 30:       eq (3r)         r2, r0, r2
             0x00041818: 84 70:       bt (ru6)        r2, 0x4 <.label201>
             0x0004181a: 00 f0 7b d0: bl (lu10)       0x7b <free>
             0x0004181e: 00 68:       ldc (ru6)       r0, 0x0
             0x00041820: d8 80:       ld16s (3r)      r1, r6[r0]
.label201    0x00041822: 00 68:       ldc (ru6)       r0, 0x0
             0x00041824: 80 01:       stw (2rus)      r0, r8[0x0]
.label200    0x00041826: ff f3 1b 68: ldc (lru6)      r0, 0xffdb
             0x0004182a: 14 38:       and (3r)        r1, r1, r0
             0x0004182c: 00 68:       ldc (ru6)       r0, 0x0
             0x0004182e: d8 f8 ec 87: st16 (l3r)      r1, r6[r0]
             0x00041832: c5 00:       stw (2rus)      r0, r5[0x1]
             0x00041834: 04 0b:       ldw (2rus)      r0, r5[0x4]
             0x00041836: c4 00:       stw (2rus)      r0, r5[0x0]
.label199    0x00041838: 57 42:       or (3r)         r1, r1, r7
             0x0004183a: 35 47:       zext (rus)      r1, 0x10
             0x0004183c: 00 68:       ldc (ru6)       r0, 0x0
             0x0004183e: d8 f8 ec 87: st16 (l3r)      r1, r6[r0]
.label197    0x00041842: 04 0b:       ldw (2rus)      r0, r5[0x4]
             0x00041844: 0c 70:       bt (ru6)        r0, 0xc <.label202>
             0x00041846: 0a f0 00 68: ldc (lru6)      r0, 0x280
             0x0004184a: 04 38:       and (3r)        r0, r1, r0
             0x0004184c: 31 47:       zext (rus)      r0, 0x10
             0x0004184e: 08 f0 80 68: ldc (lru6)      r2, 0x200
             0x00041852: 02 30:       eq (3r)         r0, r0, r2
             0x00041854: 04 70:       bt (ru6)        r0, 0x4 <.label202>
             0x00041856: c4 90:       add (2rus)      r0, r5, 0x0
             0x00041858: 01 f0 00 d0: bl (lu10)       0x400 <__smakebuf>
             0x0004185c: 18 83:       ld16s (3r)      r1, r6[r4]
.label202    0x0004185e: 04 90:       add (2rus)      r0, r1, 0x0
             0x00041860: 31 37:       sext (rus)      r0, 0x10
             0x00041862: 20 90:       add (2rus)      r2, r0, 0x0
             0x00041864: d9 46:       zext (rus)      r2, 0x1
             0x00041866: 85 78:       bf (ru6)        r2, 0x5 <.label203>
             0x00041868: 06 01:       stw (2rus)      r4, r5[0x2]
             0x0004186a: 05 0b:       ldw (2rus)      r0, r5[0x5]
             0x0004186c: c0 96:       neg (2r)        r0, r0
             0x0004186e: 06 03:       stw (2rus)      r0, r5[0x6]
             0x00041870: 09 73:       bu (u6)         0x9 <.label204>
.label203    0x00041872: 82 68:       ldc (ru6)       r2, 0x2
             0x00041874: 02 38:       and (3r)        r0, r0, r2
             0x00041876: 04 78:       bf (ru6)        r0, 0x4 <.label205>
             0x00041878: 00 68:       ldc (ru6)       r0, 0x0
             0x0004187a: 03 73:       bu (u6)         0x3 <.label206>
.label198    0x0004187c: 10 a7:       mkmsk (rus)     r4, 0x20
             0x0004187e: 09 73:       bu (u6)         0x9 <.label207>
.label205    0x00041880: 05 0b:       ldw (2rus)      r0, r5[0x5]
.label206    0x00041882: c6 00:       stw (2rus)      r0, r5[0x2]
.label204    0x00041884: 04 0b:       ldw (2rus)      r0, r5[0x4]
             0x00041886: 04 70:       bt (ru6)        r0, 0x4 <.label208>
             0x00041888: 02 f0 00 68: ldc (lru6)      r0, 0x80
             0x0004188c: 04 38:       and (3r)        r0, r1, r0
             0x0004188e: 83 aa:       shr (2rus)      r4, r0, 0x7
.label208    0x00041890: 11 37:       sext (rus)      r4, 0x1
.label207    0x00041892: c0 90:       add (2rus)      r0, r4, 0x0
             0x00041894: 06 5e:       ldw (ru6)       r8, sp[0x6]
             0x00041896: 2e f9 ec ef: ldd (l2rus)     r7, r6, sp[0x2]
             0x0004189a: 05 f9 ec ef: ldd (l2rus)     r5, r4, sp[0x1]
             0x0004189e: c8 77:       retsp (u6)      0x8

<__free>:
             0x000418a0: 00 f0 40 77: entsp (lu6)     0x0
             0x000418a4: 84 77:       extsp (u6)      0x4
             0x000418a6: 04 f9 ec f7: std (l2rus)     r5, r4, sp[0x0]
             0x000418aa: 82 55:       stw (ru6)       r6, sp[0x2]
             0x000418ac: 2e 78:       bf (ru6)        r0, 0x2e <.label209>
             0x000418ae: 40 9a:       sub (2rus)      r0, r0, 0x4
             0x000418b0: aa f2 5e 58: ldw (lru6)      r1, dp[0xaa9e]
             0x000418b4: c0 68:       ldc (ru6)       r3, 0x0
             0x000418b6: 50 78:       bf (ru6)        r1, 0x10 <.label210>
             0x000418b8: b0 08:       ldw (2rus)      r11, r0[0x0]
             0x000418ba: cc 11:       add (3r)        r4, r11, r0
             0x000418bc: aa f2 9e 60: ldaw (lru6)     r2, dp[0xaa9e]
.label214    0x000418c0: 54 08:       ldw (2rus)      r5, r1[0x0]
             0x000418c2: 25 11:       add (3r)        r6, r5, r1
             0x000418c4: 28 31:       eq (3r)         r6, r6, r0
             0x000418c6: 8b 71:       bt (ru6)        r6, 0xb <.label211>
             0x000418c8: a4 32:       eq (3r)         r6, r1, r4
             0x000418ca: 97 71:       bt (ru6)        r6, 0x17 <.label212>
             0x000418cc: 51 c8:       lsu (3r)        r5, r0, r1
             0x000418ce: 5a 71:       bt (ru6)        r5, 0x1a <.label213>
             0x000418d0: 64 92:       add (2rus)      r2, r1, 0x4
             0x000418d2: 18 08:       ldw (2rus)      r1, r2[0x0]
             0x000418d4: 4b 74:       bt (ru6)        r1, -0xb <.label214>
             0x000418d6: 17 73:       bu (u6)         0x17 <.label215>
.label210    0x000418d8: aa f2 9e 60: ldaw (lru6)     r2, dp[0xaa9e]
             0x000418dc: 14 73:       bu (u6)         0x14 <.label215>
.label211    0x000418de: ed 13:       add (3r)        r2, r11, r5
             0x000418e0: 24 00:       stw (2rus)      r2, r1[0x0]
             0x000418e2: 35 08:       ldw (2rus)      r3, r1[0x1]
             0x000418e4: d2 78:       bf (ru6)        r3, 0x12 <.label209>
             0x000418e6: b0 08:       ldw (2rus)      r11, r0[0x0]
             0x000418e8: 8c 11:       add (3r)        r0, r11, r0
             0x000418ea: 03 30:       eq (3r)         r0, r0, r3
             0x000418ec: 0e 78:       bf (ru6)        r0, 0xe <.label209>
             0x000418ee: 0c 08:       ldw (2rus)      r0, r3[0x0]
             0x000418f0: 02 10:       add (3r)        r0, r0, r2
             0x000418f2: 04 00:       stw (2rus)      r0, r1[0x0]
             0x000418f4: 0d 08:       ldw (2rus)      r0, r3[0x1]
             0x000418f6: 05 00:       stw (2rus)      r0, r1[0x1]
             0x000418f8: 08 73:       bu (u6)         0x8 <.label209>
.label212    0x000418fa: fd 13:       add (3r)        r3, r11, r5
             0x000418fc: 30 00:       stw (2rus)      r3, r0[0x0]
             0x000418fe: 15 08:       ldw (2rus)      r1, r1[0x1]
             0x00041900: 11 00:       stw (2rus)      r1, r0[0x1]
             0x00041902: 02 73:       bu (u6)         0x2 <.label216>
.label213    0x00041904: 34 90:       add (2rus)      r3, r1, 0x0
.label215    0x00041906: 31 00:       stw (2rus)      r3, r0[0x1]
.label216    0x00041908: 08 00:       stw (2rus)      r0, r2[0x0]
.label209    0x0004190a: 82 5d:       ldw (ru6)       r6, sp[0x2]
             0x0004190c: 04 f9 ec ef: ldd (l2rus)     r5, r4, sp[0x0]
             0x00041910: 84 67:       ldaw (ru6)      sp, sp[0x4]
             0x00041912: c0 77:       retsp (u6)      0x0

<free>:
             0x00041914: 00 f0 44 77: entsp (lu6)     0x4
             0x00041918: 02 55:       stw (ru6)       r4, sp[0x2]
             0x0004191a: 40 90:       add (2rus)      r4, r0, 0x0
             0x0004191c: 00 f0 ce d3: bl (lu10)       0x3ce <__malloc_lock>
             0x00041920: c0 90:       add (2rus)      r0, r4, 0x0
             0x00041922: 00 f0 43 d4: bl (lu10)       -0x43 <__free>
             0x00041926: 00 f0 d1 d3: bl (lu10)       0x3d1 <__malloc_unlock>
             0x0004192a: 02 5d:       ldw (ru6)       r4, sp[0x2]
             0x0004192c: c4 77:       retsp (u6)      0x4
             0x0004192e: 00 00:       stw (2rus)      r0, r0[0x0]

<__malloc>:
             0x00041930: 00 f0 40 77: entsp (lu6)     0x0
             0x00041934: 84 77:       extsp (u6)      0x4
             0x00041936: 04 f9 ec f7: std (l2rus)     r5, r4, sp[0x0]
             0x0004193a: 82 55:       stw (ru6)       r6, sp[0x2]
             0x0004193c: 44 68:       ldc (ru6)       r1, 0x4
             0x0004193e: 11 c8:       lsu (3r)        r1, r0, r1
             0x00041940: 42 78:       bf (ru6)        r1, 0x2 <.label217>
             0x00041942: 48 68:       ldc (ru6)       r1, 0x8
             0x00041944: 06 73:       bu (u6)         0x6 <.label218>
.label217    0x00041946: 01 f0 46 6c: ldw (lru6)      r1, cp[0x46]
             0x0004194a: 14 18:       sub (3r)        r1, r1, r0
             0x0004194c: d7 46:       zext (rus)      r1, 0x3
             0x0004194e: 11 10:       add (3r)        r1, r0, r1
             0x00041950: 54 92:       add (2rus)      r1, r1, 0x4
.label218    0x00041952: 24 c8:       lsu (3r)        r2, r1, r0
             0x00041954: 00 68:       ldc (ru6)       r0, 0x0
             0x00041956: bc 70:       bt (ru6)        r2, 0x3c <.label219>
             0x00041958: aa f2 5e 59: ldw (lru6)      r5, dp[0xaa9e]
             0x0004195c: 00 f0 d8 5a: ldw (lru6)      r11, dp[0x18]
             0x00041960: 4d 79:       bf (ru6)        r5, 0xd <.label220>
             0x00041962: aa f2 9e 61: ldaw (lru6)     r6, dp[0xaa9e]
.label222    0x00041966: f8 90:       add (2rus)      r3, r6, 0x0
             0x00041968: e4 90:       add (2rus)      r2, r5, 0x0
             0x0004196a: 48 08:       ldw (2rus)      r4, r2[0x0]
             0x0004196c: 11 c9:       lsu (3r)        r5, r4, r1
             0x0004196e: 52 79:       bf (ru6)        r5, 0x12 <.label221>
             0x00041970: a8 92:       add (2rus)      r6, r2, 0x4
             0x00041972: 59 08:       ldw (2rus)      r5, r2[0x1]
             0x00041974: 48 75:       bt (ru6)        r5, -0x8 <.label222>
             0x00041976: 12 11:       add (3r)        r5, r4, r2
             0x00041978: 1d 34:       eq (3r)         r5, r11, r5
             0x0004197a: 5a 71:       bt (ru6)        r5, 0x1a <.label223>
.label220    0x0004197c: 00 f0 97 58: ldw (lru6)      r2, dp[0x17]
             0x00041980: a8 fc ec a7: ldaw (l2rus)    r2, r2[-0x8]
             0x00041984: ab 1c:       sub (3r)        r2, r2, r11
             0x00041986: 29 c8:       lsu (3r)        r2, r2, r1
             0x00041988: a3 70:       bt (ru6)        r2, 0x23 <.label219>
             0x0004198a: 8d 11:       add (3r)        r0, r11, r1
             0x0004198c: 00 f0 18 50: stw (lru6)      r0, dp[0x18]
             0x00041990: ac 91:       add (2rus)      r2, r11, 0x0
             0x00041992: 1c 73:       bu (u6)         0x1c <.label224>
.label221    0x00041994: 84 94:       add (2rus)      r0, r1, 0x8
             0x00041996: c0 c8:       lsu (3r)        r0, r4, r0
             0x00041998: 04 78:       bf (ru6)        r0, 0x4 <.label225>
             0x0004199a: 48 92:       add (2rus)      r0, r2, 0x4
             0x0004199c: 19 08:       ldw (2rus)      r1, r2[0x1]
             0x0004199e: 1c 00:       stw (2rus)      r1, r3[0x0]
             0x000419a0: 17 73:       bu (u6)         0x17 <.label219>
.label225    0x000419a2: c1 18:       sub (3r)        r0, r4, r1
             0x000419a4: b9 08:       ldw (2rus)      r11, r2[0x1]
             0x000419a6: 49 10:       add (3r)        r4, r2, r1
             0x000419a8: 4c 00:       stw (2rus)      r4, r3[0x0]
             0x000419aa: c0 00:       stw (2rus)      r0, r4[0x0]
             0x000419ac: 71 01:       stw (2rus)      r11, r4[0x1]
             0x000419ae: 0e 73:       bu (u6)         0xe <.label224>
.label223    0x000419b0: 84 1a:       sub (3r)        r4, r1, r4
             0x000419b2: 00 f0 57 59: ldw (lru6)      r5, dp[0x17]
             0x000419b6: 01 f0 85 6d: ldw (lru6)      r6, cp[0x45]
             0x000419ba: fb 1d:       sub (3r)        r11, r6, r11
             0x000419bc: 7d 14:       add (3r)        r11, r11, r5
             0x000419be: 7c cc:       lsu (3r)        r11, r11, r4
             0x000419c0: c7 72:       bt (ru6)        r11, 0x7 <.label219>
             0x000419c2: 00 68:       ldc (ru6)       r0, 0x0
             0x000419c4: 0c 00:       stw (2rus)      r0, r3[0x0]
             0x000419c6: 09 10:       add (3r)        r0, r2, r1
             0x000419c8: 00 f0 18 50: stw (lru6)      r0, dp[0x18]
.label224    0x000419cc: 18 00:       stw (2rus)      r1, r2[0x0]
             0x000419ce: 48 92:       add (2rus)      r0, r2, 0x4
.label219    0x000419d0: 82 5d:       ldw (ru6)       r6, sp[0x2]
             0x000419d2: 04 f9 ec ef: ldd (l2rus)     r5, r4, sp[0x0]
             0x000419d6: 84 67:       ldaw (ru6)      sp, sp[0x4]
             0x000419d8: c0 77:       retsp (u6)      0x0
             0x000419da: 00 00:       stw (2rus)      r0, r0[0x0]

<malloc>:
             0x000419dc: 00 f0 44 77: entsp (lu6)     0x4
             0x000419e0: 02 55:       stw (ru6)       r4, sp[0x2]
             0x000419e2: 40 90:       add (2rus)      r4, r0, 0x0
             0x000419e4: 00 f0 6a d3: bl (lu10)       0x36a <__malloc_lock>
             0x000419e8: c0 90:       add (2rus)      r0, r4, 0x0
             0x000419ea: 00 f0 5f d4: bl (lu10)       -0x5f <__malloc>
             0x000419ee: 40 90:       add (2rus)      r4, r0, 0x0
             0x000419f0: 00 f0 6c d3: bl (lu10)       0x36c <__malloc_unlock>
             0x000419f4: c0 90:       add (2rus)      r0, r4, 0x0
             0x000419f6: 02 5d:       ldw (ru6)       r4, sp[0x2]
             0x000419f8: c4 77:       retsp (u6)      0x4
             0x000419fa: 00 00:       stw (2rus)      r0, r0[0x0]

<memchr>:
             0x000419fc: 00 f0 40 77: entsp (lu6)     0x0
             0x00041a00: 8a 78:       bf (ru6)        r2, 0xa <.label226>
             0x00041a02: 34 47:       zext (rus)      r1, 0x8
             0x00041a04: c0 68:       ldc (ru6)       r3, 0x0
.label228    0x00041a06: b3 88:       ld8u (3r)       r11, r0[r3]
             0x00041a08: 3d 32:       eq (3r)         r11, r11, r1
             0x00041a0a: c6 72:       bt (ru6)        r11, 0x6 <.label227>
             0x00041a0c: 29 98:       sub (2rus)      r2, r2, 0x1
             0x00041a0e: 01 90:       add (2rus)      r0, r0, 0x1
             0x00041a10: 86 74:       bt (ru6)        r2, -0x6 <.label228>
             0x00041a12: 0c 90:       add (2rus)      r0, r3, 0x0
             0x00041a14: 01 73:       bu (u6)         0x1 <.label227>
.label226    0x00041a16: 00 68:       ldc (ru6)       r0, 0x0
.label227    0x00041a18: c0 77:       retsp (u6)      0x0
             0x00041a1a: 00 00:       stw (2rus)      r0, r0[0x0]

<__errno>:
             0x00041a1c: 00 f0 40 77: entsp (lu6)     0x0
             0x00041a20: ee 17:       get (0r)        r11, id
             0x00041a22: aa f2 1f 60: ldaw (lru6)     r0, dp[0xaa9f]
             0x00041a26: 83 fc ec 1f: ldaw (l3r)      r0, r0[r11]
             0x00041a2a: c0 77:       retsp (u6)      0x0

<_fwalk>:
             0x00041a2c: 00 f0 4c 77: entsp (lu6)     0xc
             0x00041a30: 06 f9 ec f7: std (l2rus)     r5, r4, sp[0x2]
             0x00041a34: 2f f9 ec f7: std (l2rus)     r7, r6, sp[0x3]
             0x00041a38: 44 fc ec f7: std (l2rus)     r9, r8, sp[0x4]
             0x00041a3c: 8a 56:       stw (ru6)       r10, sp[0xa]
             0x00041a3e: 03 54:       stw (ru6)       r0, sp[0x3]
             0x00041a40: 00 f0 44 d7: bl (lu10)       -0x344 <__sfp_lock_acquire>
             0x00041a44: c0 69:       ldc (ru6)       r7, 0x0
             0x00041a46: a9 f2 54 60: ldaw (lru6)     r1, dp[0xaa54]
             0x00041a4a: 01 f0 9c 6a: ldc (lru6)      r10, 0x5c
             0x00041a4e: 08 f0 40 6a: ldc (lru6)      r9, 0x200
             0x00041a52: 1c 91:       add (2rus)      r5, r7, 0x0
.label236    0x00041a54: 45 08:       ldw (2rus)      r4, r1[0x1]
             0x00041a56: d1 a6:       mkmsk (rus)     r0, 0x1
             0x00041a58: c0 c0:       lss (3r)        r0, r4, r0
             0x00041a5a: 29 70:       bt (ru6)        r0, 0x29 <.label229>
             0x00041a5c: 42 54:       stw (ru6)       r1, sp[0x2]
             0x00041a5e: 66 08:       ldw (2rus)      r6, r1[0x2]
.label234    0x00041a60: 01 99:       sub (2rus)      r4, r4, 0x1
             0x00041a62: 4b f9 ec 9f: ldaw (l2rus)    r8, r6[0x3]
             0x00041a66: c3 83:       ld16s (3r)      r0, r8[r7]
             0x00041a68: 31 47:       zext (rus)      r0, 0x10
             0x00041a6a: 1d 78:       bf (ru6)        r0, 0x1d <.label230>
             0x00041a6c: 91 3c:       and (3r)        r1, r0, r9
             0x00041a6e: 48 70:       bt (ru6)        r1, 0x8 <.label231>
             0x00041a70: 01 f0 14 68: ldc (lru6)      r0, 0x54
             0x00041a74: c8 10:       add (3r)        r0, r6, r0
             0x00041a76: 00 f0 8d d7: bl (lu10)       -0x38d <__lock_recursive_acquire>
             0x00041a7a: c3 83:       ld16s (3r)      r0, r8[r7]
             0x00041a7c: 31 47:       zext (rus)      r0, 0x10
             0x00041a7e: 0e 78:       bf (ru6)        r0, 0xe <.label232>
.label231    0x00041a80: 4e 68:       ldc (ru6)       r1, 0xe
             0x00041a82: d9 10:       add (3r)        r1, r6, r1
             0x00041a84: 57 82:       ld16s (3r)      r1, r1[r7]
             0x00041a86: 35 47:       zext (rus)      r1, 0x10
             0x00041a88: 39 a7:       mkmsk (rus)     r2, 0x10
             0x00041a8a: 16 30:       eq (3r)         r1, r1, r2
             0x00041a8c: 45 70:       bt (ru6)        r1, 0x5 <.label233>
             0x00041a8e: c8 90:       add (2rus)      r0, r6, 0x0
             0x00041a90: 43 5c:       ldw (ru6)       r1, sp[0x3]
             0x00041a92: e1 27:       bla (1r)        r1
             0x00041a94: 91 42:       or (3r)         r5, r0, r5
             0x00041a96: c3 83:       ld16s (3r)      r0, r8[r7]
.label233    0x00041a98: 81 3c:       and (3r)        r0, r0, r9
             0x00041a9a: 05 70:       bt (ru6)        r0, 0x5 <.label230>
.label232    0x00041a9c: 01 f0 14 68: ldc (lru6)      r0, 0x54
             0x00041aa0: c8 10:       add (3r)        r0, r6, r0
             0x00041aa2: 00 f0 85 d7: bl (lu10)       -0x385 <__lock_recursive_release>
.label230    0x00041aa6: aa 15:       add (3r)        r6, r6, r10
             0x00041aa8: 0c c3:       lss (3r)        r0, r7, r4
             0x00041aaa: 26 74:       bt (ru6)        r0, -0x26 <.label234>
             0x00041aac: 01 73:       bu (u6)         0x1 <.label235>
.label229    0x00041aae: 42 54:       stw (ru6)       r1, sp[0x2]
.label235    0x00041ab0: 42 5c:       ldw (ru6)       r1, sp[0x2]
             0x00041ab2: 14 08:       ldw (2rus)      r1, r1[0x0]
             0x00041ab4: 71 74:       bt (ru6)        r1, -0x31 <.label236>
             0x00041ab6: 00 f0 49 d7: bl (lu10)       -0x349 <__sfp_lock_release>
             0x00041aba: c4 90:       add (2rus)      r0, r5, 0x0
             0x00041abc: 8a 5e:       ldw (ru6)       r10, sp[0xa]
             0x00041abe: 44 fc ec ef: ldd (l2rus)     r9, r8, sp[0x4]
             0x00041ac2: 2f f9 ec ef: ldd (l2rus)     r7, r6, sp[0x3]
             0x00041ac6: 06 f9 ec ef: ldd (l2rus)     r5, r4, sp[0x2]
             0x00041aca: cc 77:       retsp (u6)      0xc

<_fflush>:
             0x00041acc: 00 f0 4a 77: entsp (lu6)     0xa
             0x00041ad0: 05 f9 ec f7: std (l2rus)     r5, r4, sp[0x1]
             0x00041ad4: 2e f9 ec f7: std (l2rus)     r7, r6, sp[0x2]
             0x00041ad8: 07 fa ec f7: std (l2rus)     r9, r8, sp[0x3]
             0x00041adc: 88 56:       stw (ru6)       r10, sp[0x8]
             0x00041ade: 40 90:       add (2rus)      r4, r0, 0x0
             0x00041ae0: a9 f2 18 58: ldw (lru6)      r0, dp[0xaa58]
             0x00041ae4: 02 70:       bt (ru6)        r0, 0x2 <.label237>
             0x00041ae6: 00 f0 8f d7: bl (lu10)       -0x38f <__sinit>
.label237    0x00041aea: 53 f9 ec 9f: ldaw (l2rus)    r9, r4[0x3]
             0x00041aee: c0 69:       ldc (ru6)       r7, 0x0
             0x00041af0: c7 83:       ld16s (3r)      r0, r9[r7]
             0x00041af2: 08 f0 00 6a: ldc (lru6)      r8, 0x200
             0x00041af6: 90 3c:       and (3r)        r1, r0, r8
             0x00041af8: 42 78:       bf (ru6)        r1, 0x2 <.label238>
             0x00041afa: 31 47:       zext (rus)      r0, 0x10
             0x00041afc: 07 73:       bu (u6)         0x7 <.label239>
.label238    0x00041afe: 01 f0 14 68: ldc (lru6)      r0, 0x54
             0x00041b02: c0 10:       add (3r)        r0, r4, r0
             0x00041b04: 00 f0 d4 d7: bl (lu10)       -0x3d4 <__lock_recursive_acquire>
             0x00041b08: 00 68:       ldc (ru6)       r0, 0x0
             0x00041b0a: 84 81:       ld16s (3r)      r0, r9[r0]
.label239    0x00041b0c: 10 90:       add (2rus)      r1, r0, 0x0
             0x00041b0e: 35 37:       sext (rus)      r1, 0x10
             0x00041b10: 88 68:       ldc (ru6)       r2, 0x8
             0x00041b12: 26 38:       and (3r)        r2, r1, r2
             0x00041b14: 9c 78:       bf (ru6)        r2, 0x1c <.label240>
             0x00041b16: 50 0b:       ldw (2rus)      r5, r4[0x4]
             0x00041b18: 76 79:       bf (ru6)        r5, 0x36 <.label241>
             0x00041b1a: e0 08:       ldw (2rus)      r2, r4[0x0]
             0x00041b1c: a9 1a:       sub (3r)        r6, r2, r5
             0x00041b1e: 10 01:       stw (2rus)      r5, r4[0x0]
             0x00041b20: d6 46:       zext (rus)      r1, 0x2
             0x00041b22: 41 70:       bt (ru6)        r1, 0x1 <.label242>
             0x00041b24: 71 0b:       ldw (2rus)      r7, r4[0x5]
.label242    0x00041b26: 32 01:       stw (2rus)      r7, r4[0x2]
             0x00041b28: d5 a6:       mkmsk (rus)     r1, 0x1
             0x00041b2a: d9 c0:       lss (3r)        r1, r6, r1
             0x00041b2c: 4e 70:       bt (ru6)        r1, 0xe <.label243>
             0x00041b2e: c0 69:       ldc (ru6)       r7, 0x0
.label245    0x00041b30: f1 0d:       ldw (2rus)      r11, r4[0x9]
             0x00041b32: 13 0b:       ldw (2rus)      r1, r4[0x7]
             0x00041b34: cc 90:       add (2rus)      r0, r7, 0x0
             0x00041b36: e4 90:       add (2rus)      r2, r5, 0x0
             0x00041b38: f8 90:       add (2rus)      r3, r6, 0x0
             0x00041b3a: eb 27:       bla (1r)        r11
             0x00041b3c: dc c0:       lss (3r)        r1, r7, r0
             0x00041b3e: 69 78:       bf (ru6)        r1, 0x29 <.label244>
             0x00041b40: 14 11:       add (3r)        r5, r5, r0
             0x00041b42: 28 19:       sub (3r)        r6, r6, r0
             0x00041b44: 0e c3:       lss (3r)        r0, r7, r6
             0x00041b46: 0c 74:       bt (ru6)        r0, -0xc <.label245>
             0x00041b48: c7 83:       ld16s (3r)      r0, r9[r7]
.label243    0x00041b4a: 80 3c:       and (3r)        r0, r0, r8
             0x00041b4c: 1d 73:       bu (u6)         0x1d <.label246>
.label240    0x00041b4e: 20 f0 00 68: ldc (lru6)      r0, 0x800
             0x00041b52: 14 40:       or (3r)         r1, r1, r0
             0x00041b54: 80 6a:       ldc (ru6)       r10, 0x0
             0x00041b56: 16 fe ec 87: st16 (l3r)      r1, r9[r10]
             0x00041b5a: c1 08:       ldw (2rus)      r0, r4[0x1]
             0x00041b5c: 88 c1:       lss (3r)        r0, r10, r0
             0x00041b5e: 07 70:       bt (ru6)        r0, 0x7 <.label247>
             0x00041b60: 3c 68:       ldc (ru6)       r0, 0x3c
             0x00041b62: c0 10:       add (3r)        r0, r4, r0
             0x00041b64: 00 08:       ldw (2rus)      r0, r0[0x0]
             0x00041b66: d9 a6:       mkmsk (rus)     r2, 0x1
             0x00041b68: 02 c0:       lss (3r)        r0, r0, r2
             0x00041b6a: 01 f0 1b 70: bt (lru6)       r0, 0x5b <.label248>
.label247    0x00041b6e: 92 0d:       ldw (2rus)      r5, r4[0xa]
             0x00041b70: 01 f0 58 79: bf (lru6)       r5, 0x58 <.label248>
             0x00041b74: 40 f0 c0 69: ldc (lru6)      r7, 0x1000
             0x00041b78: 47 3a:       and (3r)        r0, r1, r7
             0x00041b7a: 14 78:       bf (ru6)        r0, 0x14 <.label249>
             0x00041b7c: 01 f0 10 68: ldc (lru6)      r0, 0x50
             0x00041b80: c0 10:       add (3r)        r0, r4, r0
             0x00041b82: 60 08:       ldw (2rus)      r6, r0[0x0]
             0x00041b84: 1d 73:       bu (u6)         0x1d <.label250>
.label241    0x00041b86: 84 3c:       and (3r)        r0, r1, r8
.label246    0x00041b88: 40 69:       ldc (ru6)       r5, 0x0
             0x00041b8a: 01 f0 34 70: bt (lru6)       r0, 0x74 <.label251>
             0x00041b8e: 01 f0 2d 73: bu (lu6)        0x6d <.label252>
.label244    0x00041b92: c7 83:       ld16s (3r)      r0, r9[r7]
             0x00041b94: 01 f0 40 68: ldc (lru6)      r1, 0x40
             0x00041b98: 11 40:       or (3r)         r1, r0, r1
             0x00041b9a: d7 fb ec 87: st16 (l3r)      r1, r9[r7]
             0x00041b9e: 80 3c:       and (3r)        r0, r0, r8
             0x00041ba0: 01 f0 0f 73: bu (lu6)        0x4f <.label253>
.label249    0x00041ba4: 13 0b:       ldw (2rus)      r1, r4[0x7]
             0x00041ba6: c0 69:       ldc (ru6)       r7, 0x0
             0x00041ba8: dd a6:       mkmsk (rus)     r3, 0x1
             0x00041baa: cc 90:       add (2rus)      r0, r7, 0x0
             0x00041bac: ec 90:       add (2rus)      r2, r7, 0x0
             0x00041bae: e5 27:       bla (1r)        r5
             0x00041bb0: 60 90:       add (2rus)      r6, r0, 0x0
             0x00041bb2: 14 a7:       mkmsk (rus)     r5, 0x20
             0x00041bb4: 09 33:       eq (3r)         r0, r6, r5
             0x00041bb6: 01 f0 07 70: bt (lru6)       r0, 0x47 <.label254>
             0x00041bba: d7 83:       ld16s (3r)      r1, r9[r7]
             0x00041bbc: 40 f0 c0 69: ldc (lru6)      r7, 0x1000
.label250    0x00041bc0: 04 68:       ldc (ru6)       r0, 0x4
             0x00041bc2: 04 38:       and (3r)        r0, r1, r0
             0x00041bc4: 0a 78:       bf (ru6)        r0, 0xa <.label255>
             0x00041bc6: c1 08:       ldw (2rus)      r0, r4[0x1]
             0x00041bc8: 28 19:       sub (3r)        r6, r6, r0
             0x00041bca: 30 68:       ldc (ru6)       r0, 0x30
             0x00041bcc: c0 10:       add (3r)        r0, r4, r0
             0x00041bce: 00 08:       ldw (2rus)      r0, r0[0x0]
             0x00041bd0: 04 78:       bf (ru6)        r0, 0x4 <.label255>
             0x00041bd2: 3c 68:       ldc (ru6)       r0, 0x3c
             0x00041bd4: c0 10:       add (3r)        r0, r4, r0
             0x00041bd6: 00 08:       ldw (2rus)      r0, r0[0x0]
             0x00041bd8: 28 19:       sub (3r)        r6, r6, r0
.label255    0x00041bda: f2 0d:       ldw (2rus)      r11, r4[0xa]
             0x00041bdc: 13 0b:       ldw (2rus)      r1, r4[0x7]
             0x00041bde: 40 69:       ldc (ru6)       r5, 0x0
             0x00041be0: c4 90:       add (2rus)      r0, r5, 0x0
             0x00041be2: e8 90:       add (2rus)      r2, r6, 0x0
             0x00041be4: f4 90:       add (2rus)      r3, r5, 0x0
             0x00041be6: eb 27:       bla (1r)        r11
             0x00041be8: e5 83:       ld16s (3r)      r2, r9[r5]
             0x00041bea: 42 32:       eq (3r)         r0, r0, r6
             0x00041bec: 24 78:       bf (ru6)        r0, 0x24 <.label256>
             0x00041bee: df f3 3f 68: ldc (lru6)      r0, 0xf7ff
             0x00041bf2: 18 38:       and (3r)        r1, r2, r0
             0x00041bf4: d5 fb ec 87: st16 (l3r)      r1, r9[r5]
             0x00041bf8: 11 01:       stw (2rus)      r5, r4[0x1]
             0x00041bfa: 00 0b:       ldw (2rus)      r0, r4[0x4]
             0x00041bfc: c0 00:       stw (2rus)      r0, r4[0x0]
             0x00041bfe: 4b 3a:       and (3r)        r0, r2, r7
             0x00041c00: 04 78:       bf (ru6)        r0, 0x4 <.label257>
             0x00041c02: 01 f0 10 68: ldc (lru6)      r0, 0x50
             0x00041c06: c0 10:       add (3r)        r0, r4, r0
             0x00041c08: 60 00:       stw (2rus)      r6, r0[0x0]
.label257    0x00041c0a: 30 68:       ldc (ru6)       r0, 0x30
             0x00041c0c: 20 11:       add (3r)        r6, r4, r0
             0x00041c0e: c8 08:       ldw (2rus)      r0, r6[0x0]
             0x00041c10: 09 78:       bf (ru6)        r0, 0x9 <.label248>
             0x00041c12: 01 f0 80 68: ldc (lru6)      r2, 0x40
             0x00041c16: e2 10:       add (3r)        r2, r4, r2
             0x00041c18: 22 30:       eq (3r)         r2, r0, r2
             0x00041c1a: 83 70:       bt (ru6)        r2, 0x3 <.label258>
             0x00041c1c: 00 f0 86 d5: bl (lu10)       -0x186 <free>
             0x00041c20: d5 83:       ld16s (3r)      r1, r9[r5]
.label258    0x00041c22: 18 01:       stw (2rus)      r5, r6[0x0]
.label248    0x00041c24: 84 3c:       and (3r)        r0, r1, r8
             0x00041c26: 05 70:       bt (ru6)        r0, 0x5 <.label259>
             0x00041c28: 01 f0 14 68: ldc (lru6)      r0, 0x54
             0x00041c2c: c0 10:       add (3r)        r0, r4, r0
             0x00041c2e: 01 f0 4b d4: bl (lu10)       -0x44b <__lock_recursive_release>
.label259    0x00041c32: d8 91:       add (2rus)      r5, r10, 0x0
             0x00041c34: 20 73:       bu (u6)         0x20 <.label251>
.label256    0x00041c36: 01 f0 00 68: ldc (lru6)      r0, 0x40
             0x00041c3a: 08 40:       or (3r)         r0, r2, r0
             0x00041c3c: c5 fb ec 87: st16 (l3r)      r0, r9[r5]
             0x00041c40: 88 3c:       and (3r)        r0, r2, r8
.label253    0x00041c42: 14 a7:       mkmsk (rus)     r5, 0x20
             0x00041c44: 18 70:       bt (ru6)        r0, 0x18 <.label251>
             0x00041c46: 12 73:       bu (u6)         0x12 <.label252>
.label254    0x00041c48: 00 f0 18 d5: bl (lu10)       -0x118 <__errno>
             0x00041c4c: 00 08:       ldw (2rus)      r0, r0[0x0]
             0x00041c4e: 5d 68:       ldc (ru6)       r1, 0x1d
             0x00041c50: 11 30:       eq (3r)         r1, r0, r1
             0x00041c52: c7 83:       ld16s (3r)      r0, r9[r7]
             0x00041c54: 42 78:       bf (ru6)        r1, 0x2 <.label260>
             0x00041c56: 1c 91:       add (2rus)      r5, r7, 0x0
             0x00041c58: 07 73:       bu (u6)         0x7 <.label261>
.label260    0x00041c5a: 01 f0 40 68: ldc (lru6)      r1, 0x40
             0x00041c5e: 01 40:       or (3r)         r0, r0, r1
             0x00041c60: 31 47:       zext (rus)      r0, 0x10
             0x00041c62: 40 68:       ldc (ru6)       r1, 0x0
             0x00041c64: 85 f9 ec 87: st16 (l3r)      r0, r9[r1]
.label261    0x00041c68: 80 3c:       and (3r)        r0, r0, r8
             0x00041c6a: 05 70:       bt (ru6)        r0, 0x5 <.label251>
.label252    0x00041c6c: 01 f0 14 68: ldc (lru6)      r0, 0x54
             0x00041c70: c0 10:       add (3r)        r0, r4, r0
             0x00041c72: 01 f0 6d d4: bl (lu10)       -0x46d <__lock_recursive_release>
.label251    0x00041c76: c4 90:       add (2rus)      r0, r5, 0x0
             0x00041c78: 88 5e:       ldw (ru6)       r10, sp[0x8]
             0x00041c7a: 07 fa ec ef: ldd (l2rus)     r9, r8, sp[0x3]
             0x00041c7e: 2e f9 ec ef: ldd (l2rus)     r7, r6, sp[0x2]
             0x00041c82: 05 f9 ec ef: ldd (l2rus)     r5, r4, sp[0x1]
             0x00041c86: ca 77:       retsp (u6)      0xa

<fflush>:
             0x00041c88: 00 f0 42 77: entsp (lu6)     0x2
             0x00041c8c: 03 78:       bf (ru6)        r0, 0x3 <.label262>
             0x00041c8e: 00 f0 e3 d4: bl (lu10)       -0xe3 <_fflush>
             0x00041c92: 04 73:       bu (u6)         0x4 <.label263>
.label262    0x00041c94: 07 dc:       ldap (u10)      r11, -0x7 <fflush>
             0x00041c96: 8c 91:       add (2rus)      r0, r11, 0x0
             0x00041c98: 00 f0 38 d5: bl (lu10)       -0x138 <_fwalk>
.label263    0x00041c9c: c2 77:       retsp (u6)      0x2
             0x00041c9e: 00 00:       stw (2rus)      r0, r0[0x0]

<__sread>:
             0x00041ca0: 00 f0 44 77: entsp (lu6)     0x4
             0x00041ca4: 05 f9 ec f7: std (l2rus)     r5, r4, sp[0x1]
             0x00041ca8: 44 90:       add (2rus)      r4, r1, 0x0
             0x00041caa: 0e 68:       ldc (ru6)       r0, 0xe
             0x00041cac: c0 10:       add (3r)        r0, r4, r0
             0x00041cae: 40 69:       ldc (ru6)       r5, 0x0
             0x00041cb0: 41 82:       ld16s (3r)      r0, r0[r5]
             0x00041cb2: 18 90:       add (2rus)      r1, r2, 0x0
             0x00041cb4: 2c 90:       add (2rus)      r2, r3, 0x0
             0x00041cb6: 00 f0 11 d2: bl (lu10)       0x211 <_read>
             0x00041cba: 10 f8 ec 97: ashr (l2rus)    r1, r0, 0x20
             0x00041cbe: 47 70:       bt (ru6)        r1, 0x7 <.label264>
             0x00041cc0: 01 f0 50 68: ldc (lru6)      r1, 0x50
             0x00041cc4: d1 10:       add (3r)        r1, r4, r1
             0x00041cc6: 24 08:       ldw (2rus)      r2, r1[0x0]
             0x00041cc8: 28 10:       add (3r)        r2, r2, r0
             0x00041cca: 24 00:       stw (2rus)      r2, r1[0x0]
             0x00041ccc: 08 73:       bu (u6)         0x8 <.label265>
.label264    0x00041cce: d3 f8 ec 9f: ldaw (l2rus)    r1, r4[0x3]
             0x00041cd2: 65 82:       ld16s (3r)      r2, r1[r5]
             0x00041cd4: bf f3 ff 68: ldc (lru6)      r3, 0xefff
             0x00041cd8: 2b 38:       and (3r)        r2, r2, r3
             0x00041cda: 65 fa ec 87: st16 (l3r)      r2, r1[r5]
.label265    0x00041cde: 05 f9 ec ef: ldd (l2rus)     r5, r4, sp[0x1]
             0x00041ce2: c4 77:       retsp (u6)      0x4

<__swrite>:
             0x00041ce4: 00 f0 48 77: entsp (lu6)     0x8
             0x00041ce8: 05 f9 ec f7: std (l2rus)     r5, r4, sp[0x1]
             0x00041cec: 2e f9 ec f7: std (l2rus)     r7, r6, sp[0x2]
             0x00041cf0: 06 56:       stw (ru6)       r8, sp[0x6]
             0x00041cf2: 4c 90:       add (2rus)      r4, r3, 0x0
             0x00041cf4: 58 90:       add (2rus)      r5, r2, 0x0
             0x00041cf6: 64 90:       add (2rus)      r6, r1, 0x0
             0x00041cf8: 4b f9 ec 9f: ldaw (l2rus)    r8, r6[0x3]
             0x00041cfc: c0 69:       ldc (ru6)       r7, 0x0
             0x00041cfe: c3 83:       ld16s (3r)      r0, r8[r7]
             0x00041d00: 04 f0 40 68: ldc (lru6)      r1, 0x100
             0x00041d04: 11 38:       and (3r)        r1, r0, r1
             0x00041d06: 49 78:       bf (ru6)        r1, 0x9 <.label266>
             0x00041d08: 0e 68:       ldc (ru6)       r0, 0xe
             0x00041d0a: c8 10:       add (3r)        r0, r6, r0
             0x00041d0c: 43 82:       ld16s (3r)      r0, r0[r7]
             0x00041d0e: 82 68:       ldc (ru6)       r2, 0x2
             0x00041d10: dc 90:       add (2rus)      r1, r7, 0x0
             0x00041d12: 00 f0 f7 d1: bl (lu10)       0x1f7 <_lseek>
             0x00041d16: c3 83:       ld16s (3r)      r0, r8[r7]
             0x00041d18: 01 73:       bu (u6)         0x1 <.label267>
.label266    0x00041d1a: 31 47:       zext (rus)      r0, 0x10
.label267    0x00041d1c: bf f3 7f 68: ldc (lru6)      r1, 0xefff
             0x00041d20: 01 38:       and (3r)        r0, r0, r1
             0x00041d22: c3 fb ec 87: st16 (l3r)      r0, r8[r7]
             0x00041d26: 0e 68:       ldc (ru6)       r0, 0xe
             0x00041d28: c8 10:       add (3r)        r0, r6, r0
             0x00041d2a: 43 82:       ld16s (3r)      r0, r0[r7]
             0x00041d2c: d4 90:       add (2rus)      r1, r5, 0x0
             0x00041d2e: e0 90:       add (2rus)      r2, r4, 0x0
             0x00041d30: 00 f0 de d1: bl (lu10)       0x1de <_write>
             0x00041d34: 06 5e:       ldw (ru6)       r8, sp[0x6]
             0x00041d36: 2e f9 ec ef: ldd (l2rus)     r7, r6, sp[0x2]
             0x00041d3a: 05 f9 ec ef: ldd (l2rus)     r5, r4, sp[0x1]
             0x00041d3e: c8 77:       retsp (u6)      0x8

<__sseek>:
             0x00041d40: 00 f0 44 77: entsp (lu6)     0x4
             0x00041d44: 05 f9 ec f7: std (l2rus)     r5, r4, sp[0x1]
             0x00041d48: 44 90:       add (2rus)      r4, r1, 0x0
             0x00041d4a: 0e 68:       ldc (ru6)       r0, 0xe
             0x00041d4c: c0 10:       add (3r)        r0, r4, r0
             0x00041d4e: 40 69:       ldc (ru6)       r5, 0x0
             0x00041d50: 41 82:       ld16s (3r)      r0, r0[r5]
             0x00041d52: 18 90:       add (2rus)      r1, r2, 0x0
             0x00041d54: 2c 90:       add (2rus)      r2, r3, 0x0
             0x00041d56: 00 f0 d5 d1: bl (lu10)       0x1d5 <_lseek>
             0x00041d5a: d3 f8 ec 9f: ldaw (l2rus)    r1, r4[0x3]
             0x00041d5e: 65 82:       ld16s (3r)      r2, r1[r5]
             0x00041d60: dc a6:       mkmsk (rus)     r3, 0x20
             0x00041d62: 33 30:       eq (3r)         r3, r0, r3
             0x00041d64: ca 70:       bt (ru6)        r3, 0xa <.label268>
             0x00041d66: 40 f0 c0 68: ldc (lru6)      r3, 0x1000
             0x00041d6a: 2b 40:       or (3r)         r2, r2, r3
             0x00041d6c: 65 fa ec 87: st16 (l3r)      r2, r1[r5]
             0x00041d70: 01 f0 50 68: ldc (lru6)      r1, 0x50
             0x00041d74: d1 10:       add (3r)        r1, r4, r1
             0x00041d76: 04 00:       stw (2rus)      r0, r1[0x0]
             0x00041d78: 05 73:       bu (u6)         0x5 <.label269>
.label268    0x00041d7a: bf f3 ff 68: ldc (lru6)      r3, 0xefff
             0x00041d7e: 2b 38:       and (3r)        r2, r2, r3
             0x00041d80: 65 fa ec 87: st16 (l3r)      r2, r1[r5]
.label269    0x00041d84: 05 f9 ec ef: ldd (l2rus)     r5, r4, sp[0x1]
             0x00041d88: c4 77:       retsp (u6)      0x4
             0x00041d8a: 00 00:       stw (2rus)      r0, r0[0x0]

<__sclose>:
             0x00041d8c: 00 f0 42 77: entsp (lu6)     0x2
             0x00041d90: 0e 68:       ldc (ru6)       r0, 0xe
             0x00041d92: 04 10:       add (3r)        r0, r1, r0
             0x00041d94: 40 68:       ldc (ru6)       r1, 0x0
             0x00041d96: 01 80:       ld16s (3r)      r0, r0[r1]
             0x00041d98: 00 f0 be d1: bl (lu10)       0x1be <_close>
             0x00041d9c: c2 77:       retsp (u6)      0x2
             0x00041d9e: 00 00:       stw (2rus)      r0, r0[0x0]

<__udivmoddi4>:
             0x00041da0: 00 f0 4c 77: entsp (lu6)     0xc
             0x00041da4: 06 f9 ec f7: std (l2rus)     r5, r4, sp[0x2]
             0x00041da8: 2f f9 ec f7: std (l2rus)     r7, r6, sp[0x3]
             0x00041dac: 44 fc ec f7: std (l2rus)     r9, r8, sp[0x4]
             0x00041db0: 8a 56:       stw (ru6)       r10, sp[0xa]
             0x00041db2: 4d 5e:       ldw (ru6)       r9, sp[0xd]
             0x00041db4: 52 78:       bf (ru6)        r1, 0x12 <.label270>
             0x00041db6: 9c 78:       bf (ru6)        r2, 0x1c <.label271>
             0x00041db8: f3 78:       bf (ru6)        r3, 0x33 <.label272>
             0x00041dba: 4f 0f:       clz (2r)        r11, r3
             0x00041dbc: 01 0f:       clz (2r)        r4, r1
             0x00041dbe: 7c 1c:       sub (3r)        r11, r11, r4
             0x00041dc0: 0d ac:       shr (2rus)      r4, r11, 0x5
             0x00041dc2: 24 71:       bt (ru6)        r4, 0x24 <.label273>
             0x00041dc4: dd 91:       add (2rus)      r5, r11, 0x1
             0x00041dc6: 20 69:       ldc (ru6)       r4, 0x20
             0x00041dc8: 64 33:       eq (3r)         r6, r5, r4
             0x00041dca: c0 69:       ldc (ru6)       r7, 0x0
             0x00041dcc: 01 f0 8e 79: bf (lru6)       r6, 0x4e <.label274>
             0x00041dd0: 10 91:       add (2rus)      r5, r4, 0x0
             0x00041dd2: 7c 91:       add (2rus)      r11, r7, 0x0
             0x00041dd4: 60 90:       add (2rus)      r6, r0, 0x0
             0x00041dd6: 02 f0 20 73: bu (lu6)        0xa0 <.label275>
.label270    0x00041dda: f4 78:       bf (ru6)        r3, 0x34 <.label276>
             0x00041ddc: c0 68:       ldc (ru6)       r3, 0x0
             0x00041dde: bc 90:       add (2rus)      r11, r3, 0x0
             0x00041de0: 03 f0 55 7a: bf (lru6)       r9, 0xd5 <.label277>
             0x00041de4: c0 68:       ldc (ru6)       r3, 0x0
             0x00041de6: 84 f9 f3 17: std (l3rus)     r3, r0, r9[0x0]
             0x00041dea: bc 90:       add (2rus)      r11, r3, 0x0
             0x00041dec: 03 f0 0f 73: bu (lu6)        0xcf <.label277>
.label271    0x00041df0: f4 78:       bf (ru6)        r3, 0x34 <.label278>
             0x00041df2: 01 f0 04 78: bf (lru6)       r0, 0x44 <.label279>
             0x00041df6: bd 98:       sub (2rus)      r11, r3, 0x1
             0x00041df8: cf 39:       and (3r)        r4, r11, r3
             0x00041dfa: 01 f0 2f 79: bf (lru6)       r4, 0x6f <.label280>
             0x00041dfe: 4f 0f:       clz (2r)        r11, r3
             0x00041e00: 01 0f:       clz (2r)        r4, r1
             0x00041e02: 7c 1c:       sub (3r)        r11, r11, r4
             0x00041e04: d1 a7:       mkmsk (rus)     r4, 0x5
             0x00041e06: 1c cc:       lsu (3r)        r5, r11, r4
             0x00041e08: 01 f0 72 71: bt (lru6)       r5, 0x72 <.label281>
.label273    0x00041e0c: c0 68:       ldc (ru6)       r3, 0x0
             0x00041e0e: bc 90:       add (2rus)      r11, r3, 0x0
             0x00041e10: 02 f0 7d 7a: bf (lru6)       r9, 0xbd <.label277>
             0x00041e14: 84 f9 f1 17: std (l3rus)     r1, r0, r9[0x0]
             0x00041e18: c0 68:       ldc (ru6)       r3, 0x0
             0x00041e1a: bc 90:       add (2rus)      r11, r3, 0x0
             0x00041e1c: 02 f0 37 73: bu (lu6)        0xb7 <.label277>
.label272    0x00041e20: b9 98:       sub (2rus)      r11, r2, 0x1
             0x00041e22: ce 39:       and (3r)        r4, r11, r2
             0x00041e24: 37 79:       bf (ru6)        r4, 0x37 <.label282>
             0x00041e26: 4e 0f:       clz (2r)        r11, r2
             0x00041e28: 21 69:       ldc (ru6)       r4, 0x21
             0x00041e2a: 0c 14:       add (3r)        r4, r11, r4
             0x00041e2c: 0d 0f:       clz (2r)        r7, r1
             0x00041e2e: 53 1b:       sub (3r)        r5, r4, r7
             0x00041e30: a0 69:       ldc (ru6)       r6, 0x20
             0x00041e32: 86 33:       eq (3r)         r8, r5, r6
             0x00041e34: c0 6a:       ldc (ru6)       r11, 0x0
             0x00041e36: 01 f0 01 7a: bf (lru6)       r8, 0x41 <.label283>
             0x00041e3a: 18 91:       add (2rus)      r5, r6, 0x0
             0x00041e3c: fc 91:       add (2rus)      r7, r11, 0x0
             0x00041e3e: 60 90:       add (2rus)      r6, r0, 0x0
             0x00041e40: 01 f0 2b 73: bu (lu6)        0x6b <.label275>
.label276    0x00041e44: 45 7a:       bf (ru6)        r9, 0x5 <.label284>
             0x00041e46: 12 f8 ec cf: remu (l3r)      r1, r0, r2
             0x00041e4a: c0 68:       ldc (ru6)       r3, 0x0
             0x00041e4c: 94 f9 f3 17: std (l3rus)     r3, r1, r9[0x0]
.label284    0x00041e50: 32 f8 ec 4f: divu (l3r)      r3, r0, r2
             0x00041e54: c0 6a:       ldc (ru6)       r11, 0x0
             0x00041e56: 02 f0 1a 73: bu (lu6)        0x9a <.label277>
.label278    0x00041e5a: 43 7a:       bf (ru6)        r9, 0x3 <.label285>
             0x00041e5c: 00 68:       ldc (ru6)       r0, 0x0
             0x00041e5e: 84 f9 f0 17: std (l3rus)     r0, r0, r9[0x0]
.label285    0x00041e62: c0 6a:       ldc (ru6)       r11, 0x0
             0x00041e64: b7 fc ec 4f: divu (l3r)      r3, r1, r11
             0x00041e68: 02 f0 11 73: bu (lu6)        0x91 <.label277>
.label274    0x00041e6c: d1 a7:       mkmsk (rus)     r4, 0x5
             0x00041e6e: 83 1d:       sub (3r)        r4, r4, r11
             0x00041e70: a0 22:       shl (3r)        r6, r0, r4
             0x00041e72: f5 2a:       shr (3r)        r11, r1, r5
             0x00041e74: 54 22:       shl (3r)        r1, r1, r4
             0x00041e76: 41 2a:       shr (3r)        r0, r0, r5
             0x00041e78: 14 40:       or (3r)         r1, r1, r0
             0x00041e7a: 01 f0 0e 73: bu (lu6)        0x4e <.label275>
.label279    0x00041e7e: 45 7a:       bf (ru6)        r9, 0x5 <.label286>
             0x00041e80: 07 f8 ec cf: remu (l3r)      r0, r1, r3
             0x00041e84: 80 68:       ldc (ru6)       r2, 0x0
             0x00041e86: a4 f9 f0 17: std (l3rus)     r0, r2, r9[0x0]
.label286    0x00041e8a: 37 f8 ec 4f: divu (l3r)      r3, r1, r3
             0x00041e8e: c0 6a:       ldc (ru6)       r11, 0x0
             0x00041e90: 01 f0 3d 73: bu (lu6)        0x7d <.label277>
.label282    0x00041e94: 44 7a:       bf (ru6)        r9, 0x4 <.label287>
             0x00041e96: bc 39:       and (3r)        r3, r11, r0
             0x00041e98: c0 6a:       ldc (ru6)       r11, 0x0
             0x00041e9a: b4 f9 fb 17: std (l3rus)     r11, r3, r9[0x0]
.label287    0x00041e9e: 49 b0:       eq (2rus)       r4, r2, 0x1
             0x00041ea0: 30 90:       add (2rus)      r3, r0, 0x0
             0x00041ea2: b4 90:       add (2rus)      r11, r1, 0x0
             0x00041ea4: 01 f0 33 71: bt (lru6)       r4, 0x73 <.label277>
             0x00041ea8: ca 16:       bitrev (2r)     r2, r2
             0x00041eaa: ca 0e:       clz (2r)        r2, r2
             0x00041eac: b6 28:       shr (3r)        r11, r1, r2
             0x00041eae: e0 68:       ldc (ru6)       r3, 0x20
             0x00041eb0: 3e 18:       sub (3r)        r3, r3, r2
             0x00041eb2: 17 20:       shl (3r)        r1, r1, r3
             0x00041eb4: 02 28:       shr (3r)        r0, r0, r2
             0x00041eb6: 34 40:       or (3r)         r3, r1, r0
             0x00041eb8: 01 f0 29 73: bu (lu6)        0x69 <.label277>
.label283    0x00041ebc: 65 ab:       shr (2rus)      r6, r5, 0x5
             0x00041ebe: a1 71:       bt (ru6)        r6, 0x21 <.label288>
             0x00041ec0: e0 6a:       ldc (ru6)       r11, 0x20
             0x00041ec2: 4d 1c:       sub (3r)        r8, r11, r5
             0x00041ec4: e0 24:       shl (3r)        r6, r0, r8
             0x00041ec6: f5 2a:       shr (3r)        r11, r1, r5
             0x00041ec8: 94 24:       shl (3r)        r1, r1, r8
             0x00041eca: 41 2a:       shr (3r)        r0, r0, r5
             0x00041ecc: 14 40:       or (3r)         r1, r1, r0
             0x00041ece: 43 33:       eq (3r)         r4, r4, r7
             0x00041ed0: 00 68:       ldc (ru6)       r0, 0x0
             0x00041ed2: 22 79:       bf (ru6)        r4, 0x22 <.label289>
             0x00041ed4: 20 90:       add (2rus)      r2, r0, 0x0
             0x00041ed6: 70 90:       add (2rus)      r7, r0, 0x0
             0x00041ed8: 01 f0 0b 73: bu (lu6)        0x4b <.label290>
.label280    0x00041edc: 43 7a:       bf (ru6)        r9, 0x3 <.label291>
             0x00041ede: ad 39:       and (3r)        r2, r11, r1
             0x00041ee0: 84 f9 f2 17: std (l3rus)     r2, r0, r9[0x0]
.label291    0x00041ee4: c3 16:       bitrev (2r)     r0, r3
             0x00041ee6: c0 0e:       clz (2r)        r0, r0
             0x00041ee8: 34 28:       shr (3r)        r3, r1, r0
             0x00041eea: c0 6a:       ldc (ru6)       r11, 0x0
             0x00041eec: 01 f0 0f 73: bu (lu6)        0x4f <.label277>
.label281    0x00041ef0: dd 91:       add (2rus)      r5, r11, 0x1
             0x00041ef2: 83 1d:       sub (3r)        r4, r4, r11
             0x00041ef4: a0 22:       shl (3r)        r6, r0, r4
             0x00041ef6: f5 2a:       shr (3r)        r11, r1, r5
             0x00041ef8: 54 22:       shl (3r)        r1, r1, r4
             0x00041efa: 41 2a:       shr (3r)        r0, r0, r5
             0x00041efc: 14 40:       or (3r)         r1, r1, r0
             0x00041efe: c0 69:       ldc (ru6)       r7, 0x0
             0x00041f00: 0c 73:       bu (u6)         0xc <.label275>
.label288    0x00041f02: 01 f0 00 69: ldc (lru6)      r4, 0x40
             0x00041f06: 41 1b:       sub (3r)        r4, r4, r5
             0x00041f08: b0 22:       shl (3r)        r7, r0, r4
             0x00041f0a: 84 22:       shl (3r)        r4, r1, r4
             0x00041f0c: c4 fd ec a7: ldaw (l2rus)    r8, r5[-0x8]
             0x00041f10: 80 2c:       shr (3r)        r0, r0, r8
             0x00041f12: 20 41:       or (3r)         r6, r4, r0
             0x00041f14: 94 2c:       shr (3r)        r1, r1, r8
             0x00041f16: 01 73:       bu (u6)         0x1 <.label275>
.label289    0x00041f18: 70 90:       add (2rus)      r7, r0, 0x0
.label275    0x00041f1a: 00 6a:       ldc (ru6)       r8, 0x0
             0x00041f1c: d0 a6:       mkmsk (rus)     r0, 0x20
             0x00041f1e: 98 f8 70 07: ladd (l5r)      r4, r9, r2, r0, r8
             0x00041f22: 43 56:       stw (ru6)       r9, sp[0x3]
             0x00041f24: 4c f8 90 07: ladd (l5r)      r0, r4, r3, r0, r4
             0x00041f28: 02 55:       stw (ru6)       r4, sp[0x2]
             0x00041f2a: d1 a7:       mkmsk (rus)     r4, 0x5
             0x00041f2c: 80 91:       add (2rus)      r0, r8, 0x0
             0x00041f2e: 20 92:       add (2rus)      r10, r8, 0x0
             0x00041f30: 9c 90:       add (2rus)      r9, r3, 0x0
             0x00041f32: 38 90:       add (2rus)      r3, r2, 0x0
.label292    0x00041f34: 3d a2:       shl (2rus)      r11, r11, 0x1
             0x00041f36: c4 2a:       shr (3r)        r8, r1, r4
             0x00041f38: b3 46:       or (3r)         r11, r8, r11
             0x00041f3a: 15 a0:       shl (2rus)      r1, r1, 0x1
             0x00041f3c: 88 2b:       shr (3r)        r8, r6, r4
             0x00041f3e: 94 44:       or (3r)         r1, r1, r8
             0x00041f40: 29 a1:       shl (2rus)      r6, r6, 0x1
             0x00041f42: 8c 2b:       shr (3r)        r8, r7, r4
             0x00041f44: 22 44:       or (3r)         r6, r8, r6
             0x00041f46: 3d a1:       shl (2rus)      r7, r7, 0x1
             0x00041f48: b3 42:       or (3r)         r7, r0, r7
             0x00041f4a: 03 5c:       ldw (ru6)       r0, sp[0x3]
             0x00041f4c: 01 f8 a2 0f: lsub (l5r)      r8, r0, r0, r1, r10
             0x00041f50: 02 5c:       ldw (ru6)       r0, sp[0x2]
             0x00041f52: 83 fc a0 0f: lsub (l5r)      r8, r0, r0, r11, r8
             0x00041f56: 80 f8 ec 97: ashr (l2rus)    r8, r0, 0x20
             0x00041f5a: 80 91:       add (2rus)      r0, r8, 0x0
             0x00041f5c: d1 46:       zext (rus)      r0, 0x1
             0x00041f5e: 21 3e:       and (3r)        r2, r8, r9
             0x00041f60: 03 3a:       and (3r)        r8, r8, r3
             0x00041f62: 94 fc a2 0f: lsub (l5r)      r8, r1, r1, r8, r10
             0x00041f66: 3e fa 28 0f: lsub (l5r)      r2, r11, r11, r2, r8
             0x00041f6a: 15 99:       sub (2rus)      r5, r5, 0x1
             0x00041f6c: 5d 75:       bt (ru6)        r5, -0x1d <.label292>
             0x00041f6e: 80 68:       ldc (ru6)       r2, 0x0
             0x00041f70: 4d 5e:       ldw (ru6)       r9, sp[0xd]
.label290    0x00041f72: 0a 41:       or (3r)         r4, r6, r2
             0x00041f74: 9d a7:       mkmsk (rus)     r3, 0x5
             0x00041f76: 1f 29:       shr (3r)        r5, r7, r3
             0x00041f78: fd a0:       shl (2rus)      r3, r7, 0x1
             0x00041f7a: 01 a1:       shl (2rus)      r4, r4, 0x1
             0x00041f7c: 44 43:       or (3r)         r4, r5, r4
             0x00041f7e: 42 7a:       bf (ru6)        r9, 0x2 <.label293>
             0x00041f80: 94 f9 fb 17: std (l3rus)     r11, r1, r9[0x0]
.label293    0x00041f84: 01 f0 47 6c: ldw (lru6)      r1, cp[0x47]
             0x00041f88: 1d 38:       and (3r)        r1, r3, r1
             0x00041f8a: 34 40:       or (3r)         r3, r1, r0
             0x00041f8c: 72 41:       or (3r)         r11, r4, r2
.label277    0x00041f8e: 0c 90:       add (2rus)      r0, r3, 0x0
             0x00041f90: 9c 91:       add (2rus)      r1, r11, 0x0
             0x00041f92: 8a 5e:       ldw (ru6)       r10, sp[0xa]
             0x00041f94: 44 fc ec ef: ldd (l2rus)     r9, r8, sp[0x4]
             0x00041f98: 2f f9 ec ef: ldd (l2rus)     r7, r6, sp[0x3]
             0x00041f9c: 06 f9 ec ef: ldd (l2rus)     r5, r4, sp[0x2]
             0x00041fa0: cc 77:       retsp (u6)      0xc
             0x00041fa2: 00 00:       stw (2rus)      r0, r0[0x0]

<memcpy>:
<__memcpy_4>:
             0x00041fa4: 00 f0 c3 6e: ldw (lru6)      r11, cp[0x3]
             0x00041fa8: ff 17:       nop (0r)        
             0x00041faa: fb 27:       bau (1r)        r11

<memmove>:
             0x00041fac: 00 f0 40 77: entsp (lu6)     0x0
             0x00041fb0: 31 c8:       lsu (3r)        r3, r0, r1
             0x00041fb2: 00 f0 c9 7c: bf (lru6)       r3, -0x9 <memcpy> <__memcpy_4>
             0x00041fb6: 32 10:       add (3r)        r3, r0, r2
             0x00041fb8: 33 c8:       lsu (3r)        r3, r0, r3
             0x00041fba: 00 f0 cd 7c: bf (lru6)       r3, -0xd <memcpy> <__memcpy_4>
             0x00041fbe: 87 78:       bf (ru6)        r2, 0x7 <.label294>
             0x00041fc0: c0 68:       ldc (ru6)       r3, 0x0
.label295    0x00041fc2: b7 88:       ld8u (3r)       r11, r1[r3]
             0x00041fc4: b3 f8 ec 8f: st8 (l3r)       r11, r0[r3]
             0x00041fc8: 3d 90:       add (2rus)      r3, r3, 0x1
             0x00041fca: be 30:       eq (3r)         r11, r3, r2
             0x00041fcc: c6 7e:       bf (ru6)        r11, -0x6 <.label295>
.label294    0x00041fce: c0 77:       retsp (u6)      0x0

<realloc>:
             0x00041fd0: 00 f0 46 77: entsp (lu6)     0x6
             0x00041fd4: 05 f9 ec f7: std (l2rus)     r5, r4, sp[0x1]
             0x00041fd8: 2e f9 ec f7: std (l2rus)     r7, r6, sp[0x2]
             0x00041fdc: 54 90:       add (2rus)      r5, r1, 0x0
             0x00041fde: 40 90:       add (2rus)      r4, r0, 0x0
             0x00041fe0: 00 f0 6c d0: bl (lu10)       0x6c <__malloc_lock>
             0x00041fe4: 04 68:       ldc (ru6)       r0, 0x4
             0x00041fe6: c4 c8:       lsu (3r)        r0, r5, r0
             0x00041fe8: 02 78:       bf (ru6)        r0, 0x2 <.label296>
             0x00041fea: 08 68:       ldc (ru6)       r0, 0x8
             0x00041fec: 06 73:       bu (u6)         0x6 <.label297>
.label296    0x00041fee: 01 f0 06 6c: ldw (lru6)      r0, cp[0x46]
             0x00041ff2: 41 1a:       sub (3r)        r0, r0, r5
             0x00041ff4: d3 46:       zext (rus)      r0, 0x3
             0x00041ff6: c4 10:       add (3r)        r0, r5, r0
             0x00041ff8: 40 92:       add (2rus)      r0, r0, 0x4
.label297    0x00041ffa: 15 79:       bf (ru6)        r4, 0x15 <.label298>
             0x00041ffc: 10 9b:       sub (2rus)      r1, r4, 0x4
             0x00041ffe: 74 08:       ldw (2rus)      r7, r1[0x0]
             0x00042000: ec c8:       lsu (3r)        r2, r7, r0
             0x00042002: 96 78:       bf (ru6)        r2, 0x16 <.label299>
             0x00042004: c4 90:       add (2rus)      r0, r5, 0x0
             0x00042006: 00 f0 6d d7: bl (lu10)       -0x36d <__malloc>
             0x0004200a: 60 90:       add (2rus)      r6, r0, 0x0
             0x0004200c: 9d 79:       bf (ru6)        r6, 0x1d <.label300>
             0x0004200e: 2c 9b:       sub (2rus)      r2, r7, 0x4
             0x00042010: 49 ca:       lsu (3r)        r0, r2, r5
             0x00042012: 01 70:       bt (ru6)        r0, 0x1 <.label301>
             0x00042014: e4 90:       add (2rus)      r2, r5, 0x0
.label301    0x00042016: c8 90:       add (2rus)      r0, r6, 0x0
             0x00042018: d0 90:       add (2rus)      r1, r4, 0x0
             0x0004201a: 00 f0 3d d4: bl (lu10)       -0x3d <memcpy> <__memcpy_4>
             0x0004201e: c0 90:       add (2rus)      r0, r4, 0x0
             0x00042020: 00 f0 c2 d7: bl (lu10)       -0x3c2 <__free>
             0x00042024: 12 73:       bu (u6)         0x12 <.label302>
.label298    0x00042026: c4 90:       add (2rus)      r0, r5, 0x0
             0x00042028: 00 f0 7e d7: bl (lu10)       -0x37e <__malloc>
             0x0004202c: 60 90:       add (2rus)      r6, r0, 0x0
             0x0004202e: 0d 73:       bu (u6)         0xd <.label302>
.label299    0x00042030: ec 18:       sub (3r)        r2, r7, r0
             0x00042032: c8 68:       ldc (ru6)       r3, 0x8
             0x00042034: 3b c8:       lsu (3r)        r3, r2, r3
             0x00042036: c6 70:       bt (ru6)        r3, 0x6 <.label303>
             0x00042038: 31 10:       add (3r)        r3, r0, r1
             0x0004203a: 04 00:       stw (2rus)      r0, r1[0x0]
             0x0004203c: 2c 00:       stw (2rus)      r2, r3[0x0]
             0x0004203e: 4c 92:       add (2rus)      r0, r3, 0x4
             0x00042040: 00 f0 d2 d7: bl (lu10)       -0x3d2 <__free>
.label303    0x00042044: 20 91:       add (2rus)      r6, r4, 0x0
             0x00042046: 01 73:       bu (u6)         0x1 <.label302>
.label300    0x00042048: 80 69:       ldc (ru6)       r6, 0x0
.label302    0x0004204a: 00 f0 3f d0: bl (lu10)       0x3f <__malloc_unlock>
             0x0004204e: c8 90:       add (2rus)      r0, r6, 0x0
             0x00042050: 2e f9 ec ef: ldd (l2rus)     r7, r6, sp[0x2]
             0x00042054: 05 f9 ec ef: ldd (l2rus)     r5, r4, sp[0x1]
             0x00042058: c6 77:       retsp (u6)      0x6
             0x0004205a: 00 00:       stw (2rus)      r0, r0[0x0]

<__smakebuf>:
             0x0004205c: 00 f0 46 77: entsp (lu6)     0x6
             0x00042060: 05 f9 ec f7: std (l2rus)     r5, r4, sp[0x1]
             0x00042064: 84 55:       stw (ru6)       r6, sp[0x4]
             0x00042066: 40 90:       add (2rus)      r4, r0, 0x0
             0x00042068: 0c 68:       ldc (ru6)       r0, 0xc
             0x0004206a: c0 88:       ld8u (3r)       r0, r4[r0]
             0x0004206c: 82 69:       ldc (ru6)       r6, 0x2
             0x0004206e: 42 3a:       and (3r)        r0, r0, r6
             0x00042070: 1a 70:       bt (ru6)        r0, 0x1a <.label304>
             0x00042072: 01 f0 40 69: ldc (lru6)      r5, 0x40
             0x00042076: c4 90:       add (2rus)      r0, r5, 0x0
             0x00042078: 00 f0 50 d7: bl (lu10)       -0x350 <malloc>
             0x0004207c: d3 f8 ec 9f: ldaw (l2rus)    r1, r4[0x3]
             0x00042080: 80 68:       ldc (ru6)       r2, 0x0
             0x00042082: 36 80:       ld16s (3r)      r3, r1[r2]
             0x00042084: 09 78:       bf (ru6)        r0, 0x9 <.label305>
             0x00042086: 02 f0 c0 6a: ldc (lru6)      r11, 0x80
             0x0004208a: bf 44:       or (3r)         r3, r3, r11
             0x0004208c: 36 f8 ec 87: st16 (l3r)      r3, r1[r2]
             0x00042090: c0 00:       stw (2rus)      r0, r4[0x0]
             0x00042092: 00 03:       stw (2rus)      r0, r4[0x4]
             0x00042094: 51 03:       stw (2rus)      r5, r4[0x5]
             0x00042096: 0e 73:       bu (u6)         0xe <.label306>
.label305    0x00042098: 08 f0 00 68: ldc (lru6)      r0, 0x200
             0x0004209c: 0c 38:       and (3r)        r0, r3, r0
             0x0004209e: 0a 70:       bt (ru6)        r0, 0xa <.label306>
             0x000420a0: 4e 42:       or (3r)         r0, r3, r6
             0x000420a2: 06 f8 ec 87: st16 (l3r)      r0, r1[r2]
.label304    0x000420a6: 01 f0 03 68: ldc (lru6)      r0, 0x43
             0x000420aa: c0 10:       add (3r)        r0, r4, r0
             0x000420ac: c0 00:       stw (2rus)      r0, r4[0x0]
             0x000420ae: 00 03:       stw (2rus)      r0, r4[0x4]
             0x000420b0: d1 a6:       mkmsk (rus)     r0, 0x1
             0x000420b2: 01 03:       stw (2rus)      r0, r4[0x5]
.label306    0x000420b4: 84 5d:       ldw (ru6)       r6, sp[0x4]
             0x000420b6: 05 f9 ec ef: ldd (l2rus)     r5, r4, sp[0x1]
             0x000420ba: c6 77:       retsp (u6)      0x6

<__malloc_lock>:
             0x000420bc: 00 f0 42 77: entsp (lu6)     0x2
             0x000420c0: aa f2 27 60: ldaw (lru6)     r0, dp[0xaaa7]
             0x000420c4: 01 f0 d2 d6: bl (lu10)       -0x6d2 <__lock_fair_acquire>
             0x000420c8: c2 77:       retsp (u6)      0x2
             0x000420ca: 00 00:       stw (2rus)      r0, r0[0x0]

<__malloc_unlock>:
             0x000420cc: 00 f0 42 77: entsp (lu6)     0x2
             0x000420d0: aa f2 27 60: ldaw (lru6)     r0, dp[0xaaa7]
             0x000420d4: 01 f0 ca d6: bl (lu10)       -0x6ca <__lock_fair_release>
             0x000420d8: c2 77:       retsp (u6)      0x2
             0x000420da: 00 00:       stw (2rus)      r0, r0[0x0]

<_read>:
             0x000420dc: 00 f0 40 77: entsp (lu6)     0x0
             0x000420e0: 38 90:       add (2rus)      r3, r2, 0x0
             0x000420e2: 24 90:       add (2rus)      r2, r1, 0x0
             0x000420e4: 10 90:       add (2rus)      r1, r0, 0x0
             0x000420e6: 05 68:       ldc (ru6)       r0, 0x5
             0x000420e8: 00 f0 1e d8: ldap (lu10)     r11, 0x1e <_DoSyscallErrno>
             0x000420ec: fb 27:       bau (1r)        r11
             0x000420ee: 00 00:       stw (2rus)      r0, r0[0x0]

<_write>:
             0x000420f0: 00 f0 40 77: entsp (lu6)     0x0
             0x000420f4: 38 90:       add (2rus)      r3, r2, 0x0
             0x000420f6: 24 90:       add (2rus)      r2, r1, 0x0
             0x000420f8: 10 90:       add (2rus)      r1, r0, 0x0
             0x000420fa: 06 68:       ldc (ru6)       r0, 0x6
             0x000420fc: 00 f0 14 d8: ldap (lu10)     r11, 0x14 <_DoSyscallErrno>
             0x00042100: fb 27:       bau (1r)        r11
             0x00042102: 00 00:       stw (2rus)      r0, r0[0x0]

<_lseek>:
             0x00042104: 00 f0 40 77: entsp (lu6)     0x0
             0x00042108: 38 90:       add (2rus)      r3, r2, 0x0
             0x0004210a: 24 90:       add (2rus)      r2, r1, 0x0
             0x0004210c: 10 90:       add (2rus)      r1, r0, 0x0
             0x0004210e: 08 68:       ldc (ru6)       r0, 0x8
             0x00042110: 00 f0 0a d8: ldap (lu10)     r11, 0xa <_DoSyscallErrno>
             0x00042114: fb 27:       bau (1r)        r11
             0x00042116: 00 00:       stw (2rus)      r0, r0[0x0]

<_close>:
             0x00042118: 00 f0 40 77: entsp (lu6)     0x0
             0x0004211c: 10 90:       add (2rus)      r1, r0, 0x0
             0x0004211e: 04 68:       ldc (ru6)       r0, 0x4
             0x00042120: 00 f0 02 d8: ldap (lu10)     r11, 0x2 <_DoSyscallErrno>
             0x00042124: fb 27:       bau (1r)        r11
             0x00042126: 00 00:       stw (2rus)      r0, r0[0x0]

<_DoSyscallErrno>:
             0x00042128: 00 f0 42 77: entsp (lu6)     0x2
             0x0004212c: 01 f0 30 d7: bl (lu10)       -0x730 <_DoSyscall>
             0x00042130: c4 8e:       not (2r)        r1, r0
             0x00042132: 57 aa:       shr (2rus)      r1, r1, 0x7
             0x00042134: 41 78:       bf (ru6)        r1, 0x1 <.label307>
             0x00042136: c2 77:       retsp (u6)      0x2
.label307    0x00042138: c4 96:       neg (2r)        r1, r0
             0x0004213a: 41 54:       stw (ru6)       r1, sp[0x1]
             0x0004213c: 00 f0 92 d7: bl (lu10)       -0x392 <__errno>
             0x00042140: 41 5c:       ldw (ru6)       r1, sp[0x1]
             0x00042142: 10 00:       stw (2rus)      r1, r0[0x0]
             0x00042144: d0 a6:       mkmsk (rus)     r0, 0x20
             0x00042146: c2 77:       retsp (u6)      0x2

Disassembly of section .init (size: 28)

<_init>:
.label2      0x00042148: 00 f0 42 77: entsp (lu6)     0x2
             0x0004214c: 01 f0 1c d7: bl (lu10)       -0x71c <.label308>
             0x00042150: 00 f0 35 6d: ldw (lru6)      r4, cp[0x35]
             0x00042154: 06 79:       bf (ru6)        r4, 0x6 <do_ctors_end>
             0x00042156: 00 f0 6f 6d: ldw (lru6)      r5, cp[0x2f]

<do_ctors_loop>:
             0x0004215a: 01 99:       sub (2rus)      r4, r4, 0x1
             0x0004215c: 04 4b:       ldw (3r)        r0, r5[r4]
             0x0004215e: e0 27:       bla (1r)        r0
             0x00042160: 04 75:       bt (ru6)        r4, -0x4 <do_ctors_loop>

<do_ctors_end>:
             0x00042162: c2 77:       retsp (u6)      0x2

Disassembly of section .fini (size: 48)

<_fini>:
.label138    0x00042164: 00 f0 42 77: entsp (lu6)     0x2
             0x00042168: 84 77:       extsp (u6)      0x4
             0x0004216a: 01 55:       stw (ru6)       r4, sp[0x1]
             0x0004216c: 42 55:       stw (ru6)       r5, sp[0x2]
             0x0004216e: 83 55:       stw (ru6)       r6, sp[0x3]
             0x00042170: 00 f0 b4 6d: ldw (lru6)      r6, cp[0x34]
             0x00042174: 88 79:       bf (ru6)        r6, 0x8 <do_dtors_end>
             0x00042176: 00 69:       ldc (ru6)       r4, 0x0
             0x00042178: 00 f0 70 6d: ldw (lru6)      r5, cp[0x30]

<do_dtors_loop>:
             0x0004217c: 04 4b:       ldw (3r)        r0, r5[r4]
             0x0004217e: e0 27:       bla (1r)        r0
             0x00042180: 01 91:       add (2rus)      r4, r4, 0x1
             0x00042182: b2 cb:       lsu (3r)        r11, r4, r6
             0x00042184: c5 76:       bt (ru6)        r11, -0x5 <do_dtors_loop>

<do_dtors_end>:
             0x00042186: 02 f0 6b d4: bl (lu10)       -0x86b <.label309>
             0x0004218a: 01 5d:       ldw (ru6)       r4, sp[0x1]
             0x0004218c: 42 5d:       ldw (ru6)       r5, sp[0x2]
             0x0004218e: 83 5d:       ldw (ru6)       r6, sp[0x3]
             0x00042190: 84 67:       ldaw (ru6)      sp, sp[0x4]
             0x00042192: c2 77:       retsp (u6)      0x2

Disassembly of section .eh_frame (size: 36)

             0x00042194: 0c 00 00 00: 
             0x00042198: 00 00 00 00: 
             0x0004219c: 01 00 01 01: 
             0x000421a0: 0f 0c 0e 00: 
             0x000421a4: 10 00 00 00: 
             0x000421a8: 14 00 00 00: 
             0x000421ac: c0 17 04 00: 
             0x000421b0: 12 00 00 00: 
             0x000421b4: 07 0f 00 00: 

Disassembly of section .cp.rodata (size: 20)

<_cp>:
<chanends_to_setup>:
.label5      0x000421b8: 00 00 00 00: 
             0x000421bc: ff 00 00 00: 
             0x000421c0: 70 17 f0 ff: 
             0x000421c4: 30 18 f0 ff: 

<tile>:
             0x000421c8: 00 00 01 00: 

Disassembly of section .cp.rodata.4 (size: 158)

<OV7740_QVGA>:
             0x000421cc: 13 00 55 40: 
             0x000421d0: 11 00 12 00: 
             0x000421d4: d5 10 0c 42: 
             0x000421d8: 16 11 0d 34: 
             0x000421dc: 17 25 18 a0: 
             0x000421e0: 19 03 1a f0: 
             0x000421e4: 1b 89 22 03: 
             0x000421e8: 29 17 2b f8: 
             0x000421ec: 2c 01 31 50: 
             0x000421f0: 32 78 33 c4: 
             0x000421f4: 35 05 36 3f: 
             0x000421f8: 04 60 27 80: 
             0x000421fc: 3d 0f 3e 82: 
             0x00042200: 3f 40 40 7f: 
             0x00042204: 41 6a 42 29: 
             0x00042208: 44 e5 45 41: 
             0x0004220c: 47 42 48 00: 
             0x00042210: 49 61 4a a1: 
             0x00042214: 4b 46 4c 18: 
             0x00042218: 4d 50 4e 13: 
             0x0004221c: 64 00 67 88: 
             0x00042220: 68 1a 14 38: 
             0x00042224: 24 3c 25 30: 
             0x00042228: 26 72 50 97: 
             0x0004222c: 51 7e 52 00: 
             0x00042230: 53 00 20 00: 
             0x00042234: 21 23 38 14: 
             0x00042238: e9 00 56 55: 
             0x0004223c: 57 ff 58 ff: 
             0x00042240: 59 ff 5f 04: 
             0x00042244: ec 00 13 ff: 
             0x00042248: 80 7d 81 3f: 
             0x0004224c: 82 3f 83 01: 
             0x00042250: 38 11 84 70: 
             0x00042254: 85 00 86 03: 
             0x00042258: 87 01 88 05: 
             0x0004225c: 89 30 8d 30: 
             0x00042260: 8f 85 93 30: 
             0x00042264: 95 85 99 30: 
             0x00042268: 9b 85:       

Disassembly of section .cp.const4 (size: 40)

<initial_dp>:
             0x0004226c: 70 23 04 00: 

<dp_bss_large_start>:
             0x00042270: 14 ce 06 00: 

<ctor_list_ptr>:
             0x00042274: 24 23 04 00: 

<dtor_list_ptr>:
             0x00042278: dc 22 04 00: 

<initial_sp>:
             0x0004227c: 78 ff 07 00: 

<dp_bss_size>:
             0x00042280: f4 a9 02 00: 

<dp_bss_large_size>:
             0x00042284: 00 00 00 00: 

<dtors_size>:
             0x00042288: 12 00 00 00: 

<ctors_size>:
             0x0004228c: 12 00 00 00: 
             0x00042290: 02 00 01 00: 

Disassembly of section .cp.rodata.string (size: 40)

             0x00042294: 00 00 00 00: 
             0x00042298: 0a 00 00 00: 
             0x0004229c: 42 6f 6f 74: 
             0x000422a0: 69 6e 67 20: 
             0x000422a4: 41 75 74 6f: 
             0x000422a8: 55 6d 70 2e: 
             0x000422ac: 2e 2e 00 00: 
             0x000422b0: 53 65 6e 74: 
             0x000422b4: 20 46 72 61: 
             0x000422b8: 6d 65 21 00: 

Disassembly of section .cp.rodata.cst4 (size: 32)

             0x000422bc: 00 2c 01 00: 
             0x000422c0: 40 42 0f 00: 
             0x000422c4: 40 4b 4c 00: 
             0x000422c8: 80 84 1e 00: 
             0x000422cc: e0 ff ff ff: 
             0x000422d0: fc ff ff ff: 
             0x000422d4: fe ff ff ff: 
             0x000422d8: ff ff ff 7f: 

Disassembly of section .dtors (size: 72)

<_DTOR_LIST_>:
             0x000422dc: bc 0c 04 00: 
             0x000422e0: e4 0c 04 00: 
             0x000422e4: 0c 0d 04 00: 
             0x000422e8: 34 0d 04 00: 
             0x000422ec: 5c 0d 04 00: 
             0x000422f0: 8c 0d 04 00: 
             0x000422f4: bc 0d 04 00: 
             0x000422f8: ec 0d 04 00: 
             0x000422fc: 1c 0e 04 00: 
             0x00042300: 4c 0e 04 00: 
             0x00042304: 7c 0e 04 00: 
             0x00042308: ac 0e 04 00: 
             0x0004230c: e4 0e 04 00: 
             0x00042310: 14 0f 04 00: 
             0x00042314: 44 0f 04 00: 
             0x00042318: 74 0f 04 00: 
             0x0004231c: a4 0f 04 00: 
             0x00042320: dc 0f 04 00: 

Disassembly of section .ctors (size: 72)

<_CTOR_LIST_>:
             0x00042324: a8 0c 04 00: 
             0x00042328: d0 0c 04 00: 
             0x0004232c: f8 0c 04 00: 
             0x00042330: 20 0d 04 00: 
             0x00042334: 48 0d 04 00: 
             0x00042338: 70 0d 04 00: 
             0x0004233c: a0 0d 04 00: 
             0x00042340: d0 0d 04 00: 
             0x00042344: 00 0e 04 00: 
             0x00042348: 30 0e 04 00: 
             0x0004234c: 60 0e 04 00: 
             0x00042350: 90 0e 04 00: 
             0x00042354: c0 0e 04 00: 
             0x00042358: f8 0e 04 00: 
             0x0004235c: 28 0f 04 00: 
             0x00042360: 58 0f 04 00: 
             0x00042364: 88 0f 04 00: 
             0x00042368: b8 0f 04 00: 

Disassembly of section .dp.data (size: 32)

<_dp>:
<__timers>:
<IOPortOut1>:
<IOPortIn1>:
<X_TX>:
<X_RX>:
<LED_SDI>:
<BAT_STATUS>:
             0x00042370: 01 00 00 00: 
             0x00042374: 00 00 00 00: 
             0x00042378: 00 00 00 00: 
             0x0004237c: 00 00 00 00: 
             0x00042380: 00 00 00 00: 
             0x00042384: 00 00 00 00: 
             0x00042388: 00 00 00 00: 
             0x0004238c: 00 00 00 00: 

Disassembly of section .dp.data.4 (size: 68)

<par.desc.1>:
             0x00042390: 98 06 04 00: 
             0x00042394: 48 01 00 00: 
             0x00042398: 88 06 04 00: 
             0x0004239c: 66 00 00 00: 
             0x000423a0: 00 00 00 00: 
             0x000423a4: a8 06 04 00: 

<__ref_clock>:
             0x000423a8: 00 e1 f5 05: 

<__proc_clock>:
             0x000423ac: 00 65 cd 1d: 

<__stdin>:
             0x000423b0: d4 cc 06 00: 

<__stdout>:
             0x000423b4: 30 cd 06 00: 

<__stderr>:
             0x000423b8: 8c cd 06 00: 

<__sfp_lock>:
             0x000423bc: ff ff ff ff: 
             0x000423c0: 00 00 00 00: 

<__sinit_lock>:
             0x000423c4: ff ff ff ff: 
             0x000423c8: 00 00 00 00: 

<__malloc_limit>:
             0x000423cc: d4 f6 07 00: 

<__malloc_end>:
             0x000423d0: 14 ce 06 00: 

Disassembly of section .dp.rodata.4 (size: 72)

<camCLK>:
             0x000423d4: 06 01 00 00: 

<sccb1CLK>:
             0x000423d8: 06 02 00 00: 

<sccb2CLK>:
             0x000423dc: 06 03 00 00: 

<pclk1CLK>:
             0x000423e0: 06 04 00 00: 

<pclk2CLK>:
             0x000423e4: 06 05 00 00: 

<camRESET>:
             0x000423e8: 00 0b 01 00: 

<camSFIN>:
             0x000423ec: 00 02 04 00: 

<camSYNC>:
             0x000423f0: 00 03 08 00: 

<cam1XCLK>:
             0x000423f4: 00 00 01 00: 

<cam1PCLK>:
             0x000423f8: 00 02 01 00: 

<cam1SCL>:
             0x000423fc: 00 0d 01 00: 

<cam1SDA>:
             0x00042400: 00 0c 01 00: 

<cam1DATA>:
             0x00042404: 00 00 08 00: 

<cam2XCLK>:
             0x00042408: 00 03 01 00: 

<cam2PCLK>:
             0x0004240c: 00 01 01 00: 

<cam2SCL>:
             0x00042410: 00 0f 01 00: 

<cam2SDA>:
             0x00042414: 00 0e 01 00: 

<cam2DATA>:
             0x00042418: 00 02 08 00: 


